(lp0
(S'Yahoo'
p1
I26
tp2
a(S'used'
p3
I3
tp4
a(S'perf'
p5
I1
tp6
a(S'beacons'
p7
I1
tp8
a(S'3pas'
p9
I1
tp10
a(S'rtTop'
p11
I1
tp12
a(S'Numbernew'
p13
I1
tp14
a(S'Date'
p15
I2
tp16
a(S'documentdocumentElementclassName'
p17
I3
tp18
a(S'jsenabled'
p19
I5
tp20
a(S'ontouchstart'
p21
I1
tp22
a(S'documentdocumentElement'
p23
I1
tp24
a(S'documentdocumentElementclassName'
p25
I3
tp26
a(S'notouch'
p27
I1
tp28
a(S'functionvar'
p29
I2
tp30
a(S'k13d4j0adocumentdocumentElementbaclassNamefcnavigatorpluginsgkifcclengthfcShockwave'
p31
I1
tp32
a(S'FlashifffdescriptionjparseIntfdescriptionmatchbddb1100elsewhilegtrynew'
p33
I1
tp34
a(S'ActiveXObjectShockwaveFlashShockwaveFlashgjgbreakcatchhbpushflashjwhilejdbpushflashgtjaclassNamebjoin'
p35
I1
tp36
a(S'functionvar'
p37
I2
tp38
a(S'jthisnonloadboniaddEventListenerfattachEventeochdetachEventgremoveEventListenerljimjgpjfajhkd0function'
p39
I1
tp40
a(S'crsqifrsreturnifntestrifsevar'
p41
I1
tp42
a(S'tdsetktselseifpbtestrprselseifllrsqfunction'
p43
I1
tp44
a(S'orsqifrsreturnifntestrvar'
p45
I1
tp46
a(S'tseiftdelete'
p47
I1
tp48
a(S'ktelseifabtestrarselseifmmrsqjOnloadCacheenablefunctionifljicjgoifpjfcjhodisablefunctionifljiljgmifpjfpjhadispatchfunctionvar'
p49
I1
tp50
a(S'rtypeloadqforq'
p51
I1
tp52
a(S'kifkhasOwnPropertyqkqrresetfunctionk'
p53
I1
tp54
a(S'OnloadCacheenable'
p55
I1
tp56
a(S'var'
p57
I30
tp58
a(S'setJSCookie'
p59
I1
tp60
a(S'true'
p61
I11
tp62
a(S'function'
p63
I12
tp64
a(S'var'
p65
I30
tp66
a(S'cookieName'
p67
I1
tp68
a(S'FBJSC'
p69
I1
tp70
a(S'var'
p71
I30
tp72
a(S'cookieValue'
p73
I1
tp74
a(S'1447682759'
p75
I1
tp76
a(S'var'
p77
I30
tp78
a(S'cookieIndex'
p79
I1
tp80
a(S'documentcookieindexOfcookieName'
p81
I1
tp82
a(S'ifcookieIndex'
p83
I1
tp84
a(S'0'
p85
I54
tp86
a(S'var'
p87
I30
tp88
a(S'oldValue'
p89
I1
tp90
a(S'documentcookiesubstrcookieIndex'
p91
I1
tp92
a(S'cookieNamelength'
p93
I1
tp94
a(S'cookieValuelength'
p95
I1
tp96
a(S'ifcookieValue'
p97
I1
tp98
a(S'jsenabled'
p99
I5
tp100
a(S'lzbgbackgroundnoneimportant'
p101
I1
tp102
a(S'ifsetJSCookie'
p103
I2
tp104
a(S'documentcookiehpcdxof6dC9zV5vvnGfLs8LbJ0JC4vWQ0QJkEYars6xoqLj25MFYlETsJbwUWLbCAqvZaW3NzsoDH5GE5moh1bIn8UFGJCTHMP0xqUecE4aqS9GJMPwZtbG4kJaFCtdIJavXewvX8heP19YwORtul4Qd8rGdWstzq9bGclNxTZeWmxHnd7AdPa9k8Bz0rzr6rYZOsYYv2pathdomainwwwyahoocomexpiresTue'
p105
I1
tp106
a(S'15'
p107
I3
tp108
a(S'Nov'
p109
I1
tp110
a(S'2016'
p111
I2
tp112
a(S'020559'
p113
I1
tp114
a(S'GMT'
p115
I1
tp116
a(S'ifsetJSCookie'
p117
I2
tp118
a(S'documentcookiefptdH3getYDRed2V9CcRGE9G7HJxPtpGDUE6OtbL7WFyDOfTusCtRycPaksUqFXnyvsVtoToOYS2OE7w2m5d2aTXDbRjyv1pathdomainwwwyahoocom'
p119
I1
tp120
a(S'Upgrade'
p121
I1
tp122
a(S'new'
p123
I10
tp124
a(S'Firefoxnbsp\xc2\xbb'
p125
I1
tp126
a(S'HomeMailAnswersGroupsFlickrTumblrGamesLiveScreenMobile'
p127
I1
tp128
a(S'More'
p129
I6
tp130
a(S'CelebrityMoviesMusicTVHealthStyleBeautyFoodTechShoppingTravelAutosHomes'
p131
I1
tp132
a(S'ylogonew'
p133
I3
tp134
a(S'width142pximportant'
p135
I1
tp136
a(S'height37pximportant'
p137
I1
tp138
a(S'displayblock'
p139
I2
tp140
a(S'backgroundposition'
p141
I1
tp142
a(S'0'
p143
I54
tp144
a(S'0important'
p145
I1
tp146
a(S'backgroundrepeat'
p147
I1
tp148
a(S'norepeat'
p149
I2
tp150
a(S'ylogonew'
p151
I3
tp152
a(S'ti'
p153
I1
tp154
a(S'displayblock'
p155
I2
tp156
a(S'ylogonew'
p157
I3
tp158
a(S'backgroundimageurlhttpssyimgcomrzlyahooenUSfp142x372xpng'
p159
I1
tp160
a(S'backgroundsize'
p161
I1
tp162
a(S'142px'
p163
I1
tp164
a(S'37px'
p165
I1
tp166
a(S'Yahoo'
p167
I26
tp168
a(S'Yahoo'
p169
I26
tp170
a(S'Search'
p171
I6
tp172
a(S'nbspSearch'
p173
I1
tp174
a(S'Search'
p175
I6
tp176
a(S'Web'
p177
I1
tp178
a(S'Open'
p179
I1
tp180
a(S'Search'
p181
I6
tp182
a(S'Assist'
p183
I1
tp184
a(S'Monday'
p185
I4
tp186
a(S'November'
p187
I2
tp188
a(S'16'
p189
I2
tp190
a(S'2015'
p191
I3
tp192
a(S'My'
p193
I4
tp194
a(S'Yahoo'
p195
I26
tp196
a(S'Sign'
p197
I7
tp198
a(S'In'
p199
I3
tp200
a(S'nbsp'
p201
I1
tp202
a(S'Yahoo'
p203
I26
tp204
a(S'New'
p205
I1
tp206
a(S'here'
p207
I2
tp208
a(S'Sign'
p209
I7
tp210
a(S'Up'
p211
I4
tp212
a(S'Mail'
p213
I2
tp214
a(S'Holiday'
p215
I1
tp216
a(S'Searches'
p217
I1
tp218
a(S'1Laptop'
p219
I1
tp220
a(S'deals2Isotoner'
p221
I2
tp222
a(S'slippers3Wool'
p223
I2
tp224
a(S'blankets4Art'
p225
I2
tp226
a(S'supplies5Camping'
p227
I2
tp228
a(S'accessories6Holiday'
p229
I2
tp230
a(S'dresses7Family'
p231
I2
tp232
a(S'vacations8Dried'
p233
I2
tp234
a(S'fruit9Mens'
p235
I2
tp236
a(S'robes10Thanksgiving'
p237
I2
tp238
a(S'flowers'
p239
I1
tp240
a(S'function'
p241
I12
tp242
a(S'var'
p243
I30
tp244
a(S'wwindowddocumentlrkct'
p245
I1
tp246
a(S'sbox'
p247
I3
tp248
a(S'dgetElementsByNamep0'
p249
I1
tp250
a(S'sBdr'
p251
I1
tp252
a(S'dgetElementByIdfpsearchbdr'
p253
I1
tp254
a(S'sBdrClasses'
p255
I2
tp256
a(S'sBdrclassName'
p257
I3
tp258
a(S'sBdrFocusClass'
p259
I2
tp260
a(S'brdrfocus'
p261
I1
tp262
a(S'checkFocus'
p263
I3
tp264
a(S'function'
p265
I12
tp266
a(S'e'
p267
I3
tp268
a(S'try'
p269
I3
tp270
a(S'kc'
p271
I6
tp272
a(S'ekeyCode'
p273
I1
tp274
a(S'etarget'
p275
I2
tp276
a(S'etarget'
p277
I2
tp278
a(S'esrcElement'
p279
I1
tp280
a(S'l'
p281
I4
tp282
a(S'sboxvaluelength'
p283
I1
tp284
a(S'sbox'
p285
I3
tp286
a(g281
I4
tp287
a(g143
I54
tp288
a(S'kc'
p289
I6
tp290
a(S'32'
p291
I2
tp292
a(S'kc'
p293
I6
tp294
a(S'40'
p295
I2
tp296
a(S'kc'
p297
I6
tp298
a(S'9'
p299
I2
tp300
a(S'kc'
p301
I6
tp302
a(S'13'
p303
I2
tp304
a(S'kc'
p305
I6
tp306
a(S'16'
p307
I2
tp308
a(S'l'
p309
I4
tp310
a(S'sboxsetSelectionRange'
p311
I1
tp312
a(S'sboxsetSelectionRangell'
p313
I1
tp314
a(S'else'
p315
I17
tp316
a(S'sboxcreateTextRange'
p317
I2
tp318
a(S'r'
p319
I1
tp320
a(S'sboxcreateTextRange'
p321
I2
tp322
a(S'rmoveStartcharacter'
p323
I1
tp324
a(S'l'
p325
I4
tp326
a(S'rselect'
p327
I1
tp328
a(S'sboxfocus'
p329
I1
tp330
a(S'catche'
p331
I2
tp332
a(S'focusInput'
p333
I3
tp334
a(S'function'
p335
I12
tp336
a(S'e'
p337
I3
tp338
a(S'sBdrclassName'
p339
I3
tp340
a(S'sBdrFocusClass'
p341
I2
tp342
a(S'blurInput'
p343
I3
tp344
a(S'function'
p345
I12
tp346
a(S'e'
p347
I3
tp348
a(S'sBdrclassName'
p349
I3
tp350
a(S'sBdrClasses'
p351
I2
tp352
a(S'sbox'
p353
I3
tp354
a(S'waddEventListener'
p355
I1
tp356
a(S'waddEventListenerkeydown'
p357
I1
tp358
a(S'checkFocus'
p359
I3
tp360
a(S'false'
p361
I4
tp362
a(S'sboxaddEventListenerfocus'
p363
I1
tp364
a(S'focusInput'
p365
I3
tp366
a(S'true'
p367
I11
tp368
a(S'sboxaddEventListenerblur'
p369
I1
tp370
a(S'blurInput'
p371
I3
tp372
a(S'true'
p373
I11
tp374
a(S'else'
p375
I17
tp376
a(S'wattachEvent'
p377
I1
tp378
a(S'dattachEventonkeydown'
p379
I1
tp380
a(S'checkFocus'
p381
I3
tp382
a(S'sboxattachEventonfocus'
p383
I1
tp384
a(S'focusInput'
p385
I3
tp386
a(S'sboxattachEventonblur'
p387
I1
tp388
a(S'blurInput'
p389
I3
tp390
a(S'setTimeoutfunction'
p391
I4
tp392
a(S'sboxfocusso'
p393
I1
tp394
a(S'works'
p395
I1
tp396
a(S'onload'
p397
I1
tp398
a(S'1000'
p399
I3
tp400
a(S'MailNewsSportsFinanceWeatherAutosFantasyScreenDatingShoppingMakersParentingHealthStyleBeautyPoliticsMoviesTravelTechTVMore'
p401
I1
tp402
a(S'Yahoo'
p403
I26
tp404
a(S'Sites'
p405
I1
tp406
a(S'Yahoo'
p407
I26
tp408
a(S'en'
p409
I1
tp410
a(S'Espa\xc3\xb1ol'
p411
I1
tp412
a(S'AnswersCareersCelebrityFantasy'
p413
I1
tp414
a(S'BaseballFantasy'
p415
I1
tp416
a(S'SportsFlickrGamesGroupsHoroscopesLocalMessengerMusicMy'
p417
I1
tp418
a(S'YahooSearchSmall'
p419
I1
tp420
a(S'BusinessAll'
p421
I1
tp422
a(S'Products'
p423
I1
tp424
a(S'raquo'
p425
I2
tp426
a(S'Learn'
p427
I1
tp428
a(S'more'
p429
I25
tp430
a(S'about'
p431
I10
tp432
a(S'Yahoo'
p433
I26
tp434
a(S'Make'
p435
I5
tp436
a(S'Yahoo'
p437
I26
tp438
a(S'your'
p439
I25
tp440
a(S'homepage'
p441
I1
tp442
a(S'An'
p443
I1
tp444
a(S'endless'
p445
I1
tp446
a(S'stream'
p447
I1
tp448
a(S'personalized'
p449
I1
tp450
a(S'news'
p451
I3
tp452
a(S'Get'
p453
I2
tp454
a(S'App'
p455
I1
tp456
a(S'page'
p457
I2
tp458
a(S'1'
p459
I42
tp460
a(S'2Trending'
p461
I1
tp462
a(S'NowHoliday'
p463
I1
tp464
a(S'Searches1'
p465
I1
tp466
a(S'Debbie'
p467
I1
tp468
a(S'Reynolds2'
p469
I1
tp470
a(S'Elizabeth'
p471
I1
tp472
a(S'Banks3'
p473
I1
tp474
a(S'Soleil'
p475
I1
tp476
a(S'Moon'
p477
I1
tp478
a(S'Frye4'
p479
I1
tp480
a(S'Holly'
p481
I2
tp482
a(S'Holm5'
p483
I1
tp484
a(S'Thanksgiving'
p485
I2
tp486
a(S'Day'
p487
I1
tp488
a(S'sales6'
p489
I1
tp490
a(S'Mazda'
p491
I1
tp492
a(S'CX37'
p493
I1
tp494
a(S'Ariel'
p495
I1
tp496
a(S'Winter8'
p497
I1
tp498
a(S'Nohemi'
p499
I1
tp500
a(S'Gonzalez9'
p501
I1
tp502
a(S'FHA'
p503
I1
tp504
a(S'mortgage10'
p505
I1
tp506
a(S'Rousey'
p507
I1
tp508
a(S'Holm1Laptop'
p509
I1
tp510
a(S'deals2Isotoner'
p511
I2
tp512
a(S'slippers3Wool'
p513
I2
tp514
a(S'blankets4Art'
p515
I2
tp516
a(S'supplies5Camping'
p517
I2
tp518
a(S'accessories6Holiday'
p519
I2
tp520
a(S'dresses7Family'
p521
I2
tp522
a(S'vacations8Dried'
p523
I2
tp524
a(S'fruit9Mens'
p525
I2
tp526
a(S'robes10Thanksgiving'
p527
I2
tp528
a(S'flowersPreviousNext'
p529
I1
tp530
a(S'Live'
p531
I2
tp532
a(S'concertA'
p533
I1
tp534
a(S'Great'
p535
I1
tp536
a(S'Big'
p537
I2
tp538
a(S'Worldnbspraquo'
p539
I1
tp540
a(S'1119'
p541
I1
tp542
a(S'Billboard'
p543
I13
tp544
a(S'malfpad'
p545
I54
tp546
a(S'Stagefpad'
p547
I1
tp548
a(S'fpad'
p549
I9
tp550
a(S'marginbottom15px'
p551
I1
tp552
a(S'typeads'
p553
I3
tp554
a(S'fpadmarginbottom7px'
p555
I1
tp556
a(S'jsenabled'
p557
I5
tp558
a(S'typeads'
p559
I3
tp560
a(S'fpad'
p561
I9
tp562
a(S'marginbottom16px'
p563
I1
tp564
a(S'adnoimgdisplaynone'
p565
I1
tp566
a(S'malfpad'
p567
I54
tp568
a(S'typeads'
p569
I3
tp570
a(S'fpad'
p571
I9
tp572
a(S'marginbottom0'
p573
I1
tp574
a(S'fpadadchoicesfpadcanadslug'
p575
I1
tp576
a(S'backgroundurlhttpssyimgcomlqlibcaninterstitialiconsadchoice14png'
p577
I1
tp578
a(S'norepeat'
p579
I2
tp580
a(S'right'
p581
I3
tp582
a(S'transparentpadding0px'
p583
I1
tp584
a(S'15px'
p585
I2
tp586
a(S'0px'
p587
I1
tp588
a(S'0pxcolor999'
p589
I1
tp590
a(S'fpadadlnkwidth296pxmargin2px'
p591
I1
tp592
a(S'auto'
p593
I10
tp594
a(S'0'
p595
I54
tp596
a(S'fpadadlnk'
p597
I2
tp598
a(S'tablewidth100'
p599
I1
tp600
a(S'fpadadlnk'
p601
I2
tp602
a(S'atextdecorationnone'
p603
I1
tp604
a(S'adivbasemargin0px'
p605
I1
tp606
a(S'autoheight250pxwidth300pxpositionrelative'
p607
I1
tp608
a(S'fpad'
p609
I9
tp610
a(S'outlinenone'
p611
I1
tp612
a(S'fpad'
p613
I9
tp614
a(S'img'
p615
I1
tp616
a(S'fpad'
p617
I9
tp618
a(S'embed'
p619
I1
tp620
a(S'fpad'
p621
I9
tp622
a(S'object'
p623
I1
tp624
a(S'displayblockmargin0'
p625
I1
tp626
a(S'autooutlinenone'
p627
I1
tp628
a(S'Stencil'
p629
I13
tp630
a(S'tac'
p631
I1
tp632
a(S'textaligncenter'
p633
I1
tp634
a(S'Stencil'
p635
I13
tp636
a(S'tar'
p637
I1
tp638
a(S'textalignright'
p639
I1
tp640
a(S'Stencil'
p641
I13
tp642
a(S'tal'
p643
I1
tp644
a(S'textalignleft'
p645
I2
tp646
a(S'Stencil'
p647
I13
tp648
a(S'fzxxs'
p649
I1
tp650
a(S'fontsize11px'
p651
I3
tp652
a(S'Stencil'
p653
I13
tp654
a(S'prxspaddingright'
p655
I1
tp656
a(S'5px'
p657
I2
tp658
a(S'Stencil'
p659
I13
tp660
a(S'BillboardAddisplayblock'
p661
I1
tp662
a(S'Stencil'
p663
I13
tp664
a(S'malfpad'
p665
I54
tp666
a(S'adnorthbasepositionrelativedisplayblock'
p667
I1
tp668
a(S'Stencil'
p669
I13
tp670
a(S'malfpad'
p671
I54
tp672
a(S'adnorthpositionrelativemargin0'
p673
I1
tp674
a(S'autowidth1041pxheight300pxdisplayblockbackgroundcolortransparent'
p675
I1
tp676
a(S'malfpad'
p677
I54
tp678
a(S'billboardlayout'
p679
I14
tp680
a(S'adnorthbase'
p681
I8
tp682
a(S'adnorthmarginbottom15px'
p683
I1
tp684
a(S'webkituserselect'
p685
I1
tp686
a(S'none'
p687
I6
tp688
a(S'mozuserselect'
p689
I1
tp690
a(S'none'
p691
I6
tp692
a(S'khtmluserselect'
p693
I1
tp694
a(S'none'
p695
I6
tp696
a(S'msuserselect'
p697
I1
tp698
a(S'none'
p699
I6
tp700
a(S'Stencil'
p701
I13
tp702
a(S'malfpad'
p703
I54
tp704
a(S'myadsFPAD'
p705
I1
tp706
a(S'displaynone'
p707
I2
tp708
a(S'my3columns'
p709
I2
tp710
a(S'malfpad'
p711
I54
tp712
a(S'adnorthbase'
p713
I8
tp714
a(S'paddingtop0'
p715
I1
tp716
a(S'my3columns'
p717
I2
tp718
a(S'malfpad'
p719
I54
tp720
a(S'UH'
p721
I2
tp722
a(S'height84px'
p723
I2
tp724
a(S'Stencil'
p725
I13
tp726
a(S'malfpad'
p727
I54
tp728
a(S'UH'
p729
I2
tp730
a(S'height84px'
p731
I2
tp732
a(S'media'
p733
I8
tp734
a(S'screen'
p735
I7
tp736
a(S'minwidth'
p737
I8
tp738
a(S'1201px'
p739
I7
tp740
a(S'Billboard'
p741
I13
tp742
a(S'malfpad'
p743
I54
tp744
a(S'UHCol2'
p745
I3
tp746
a(S'Billboard'
p747
I13
tp748
a(S'malfpad'
p749
I54
tp750
a(S'Col2'
p751
I6
tp752
a(S'BillboardStickyon'
p753
I4
tp754
a(S'malfpad'
p755
I54
tp756
a(S'Col2'
p757
I6
tp758
a(S'Sticky'
p759
I6
tp760
a(S'maxwidth'
p761
I7
tp762
a(S'1201pxpaddingright'
p763
I1
tp764
a(S'406px'
p765
I1
tp766
a(S'Billboard'
p767
I13
tp768
a(S'malfpad'
p769
I54
tp770
a(S'UHCol3'
p771
I3
tp772
a(S'Billboard'
p773
I13
tp774
a(S'malfpad'
p775
I54
tp776
a(S'Col3'
p777
I6
tp778
a(S'BillboardStickyon'
p779
I4
tp780
a(S'malfpad'
p781
I54
tp782
a(S'Col3'
p783
I6
tp784
a(S'Sticky'
p785
I6
tp786
a(S'right'
p787
I3
tp788
a(S'autoleft'
p789
I1
tp790
a(S'750px'
p791
I1
tp792
a(S'media'
p793
I8
tp794
a(S'screen'
p795
I7
tp796
a(S'minwidth'
p797
I8
tp798
a(S'1201px'
p799
I7
tp800
a(S'Billboardcenteredalignedlayout'
p801
I6
tp802
a(S'malfpad'
p803
I54
tp804
a(S'UHCol1'
p805
I1
tp806
a(S'Billboardcenteredalignedlayout'
p807
I6
tp808
a(S'malfpad'
p809
I54
tp810
a(S'Col1'
p811
I3
tp812
a(S'BillboardcenteredalignedlayoutStickyon'
p813
I3
tp814
a(S'malfpad'
p815
I54
tp816
a(S'Col1'
p817
I3
tp818
a(S'Sticky'
p819
I6
tp820
a(S'Billboardcenteredalignedlayout'
p821
I6
tp822
a(S'malfpad'
p823
I54
tp824
a(S'UHCol2'
p825
I3
tp826
a(S'Billboardcenteredalignedlayout'
p827
I6
tp828
a(S'malfpad'
p829
I54
tp830
a(S'Col2'
p831
I6
tp832
a(S'BillboardcenteredalignedlayoutStickyon'
p833
I3
tp834
a(S'malfpad'
p835
I54
tp836
a(S'Col2'
p837
I6
tp838
a(S'Stickyleft'
p839
I1
tp840
a(S'50marginleft596pxmaxwidth'
p841
I1
tp842
a(S'1196px'
p843
I1
tp844
a(S'Billboardcenteredalignedlayout'
p845
I6
tp846
a(S'malfpad'
p847
I54
tp848
a(S'UHCol3'
p849
I3
tp850
a(S'Billboardcenteredalignedlayout'
p851
I6
tp852
a(S'malfpad'
p853
I54
tp854
a(S'Col3'
p855
I6
tp856
a(S'BillboardcenteredalignedlayoutStickyon'
p857
I3
tp858
a(S'malfpad'
p859
I54
tp860
a(S'Col3'
p861
I6
tp862
a(S'Sticky'
p863
I6
tp864
a(S'left'
p865
I3
tp866
a(S'50marginleft'
p867
I1
tp868
a(S'196px'
p869
I1
tp870
a(S'Billboard'
p871
I13
tp872
a(S'malfpad'
p873
I54
tp874
a(S'UHCol2'
p875
I3
tp876
a(S'Billboard'
p877
I13
tp878
a(S'malfpad'
p879
I54
tp880
a(S'Col2'
p881
I6
tp882
a(S'BillboardStickyon'
p883
I4
tp884
a(S'malfpad'
p885
I54
tp886
a(S'Col2'
p887
I6
tp888
a(S'Sticky'
p889
I6
tp890
a(S'maxwidth'
p891
I7
tp892
a(S'1201px'
p893
I7
tp894
a(S'Billboard'
p895
I13
tp896
a(S'malfpad'
p897
I54
tp898
a(S'UHCol3'
p899
I3
tp900
a(S'Billboard'
p901
I13
tp902
a(S'malfpad'
p903
I54
tp904
a(S'Col3'
p905
I6
tp906
a(S'BillboardStickyon'
p907
I4
tp908
a(S'malfpad'
p909
I54
tp910
a(S'Col3'
p911
I6
tp912
a(S'Sticky'
p913
I6
tp914
a(S'maxwidth'
p915
I7
tp916
a(S'415px'
p917
I1
tp918
a(S'media'
p919
I8
tp920
a(S'screen'
p921
I7
tp922
a(S'minwidth'
p923
I8
tp924
a(S'1201px'
p925
I7
tp926
a(S'Billboard'
p927
I13
tp928
a(S'malfpad'
p929
I54
tp930
a(S'Stage'
p931
I2
tp932
a(S'marginleft'
p933
I2
tp934
a(S'154pxmaxwidth'
p935
I1
tp936
a(S'1047px'
p937
I1
tp938
a(S'Billboard'
p939
I13
tp940
a(S'malfpad'
p941
I54
tp942
a(S'Col1'
p943
I3
tp944
a(S'top'
p945
I2
tp946
a(S'0'
p947
I54
tp948
a(S'media'
p949
I8
tp950
a(S'screen'
p951
I7
tp952
a(S'minwidth'
p953
I8
tp954
a(S'1201px'
p955
I7
tp956
a(S'Billboard'
p957
I13
tp958
a(S'malfpad'
p959
I54
tp960
a(S'Stage'
p961
I2
tp962
a(S'margin'
p963
I1
tp964
a(S'automozboxsizing'
p965
I1
tp966
a(S'borderboxboxsizing'
p967
I1
tp968
a(S'borderboxpaddingleft'
p969
I1
tp970
a(S'160pxmaxwidth'
p971
I1
tp972
a(S'1201px'
p973
I7
tp974
a(S'Stenciluaie8'
p975
I1
tp976
a(S'malfpad'
p977
I54
tp978
a(S'adnorthbasewidth1041pxmargin86px'
p979
I2
tp980
a(S'auto'
p981
I10
tp982
a(S'0'
p983
I54
tp984
a(S'adw'
p985
I2
tp986
a(S'width1041pxmargin0'
p987
I1
tp988
a(S'auto'
p989
I10
tp990
a(S'malfpad'
p991
I54
tp992
a(S'billboardlayout'
p993
I14
tp994
a(S'maincolwrapper'
p995
I3
tp996
a(S'malfpad'
p997
I54
tp998
a(S'billboardlayout'
p999
I14
tp1000
a(S'mainrowwrapper'
p1001
I2
tp1002
a(S'maxwidth'
p1003
I7
tp1004
a(S'1201px'
p1005
I7
tp1006
a(S'malfpad'
p1007
I54
tp1008
a(S'adnorthbase'
p1009
I8
tp1010
a(S'adnorth'
p1011
I5
tp1012
a(S'adisplayblockmargin0'
p1013
I1
tp1014
a(S'auto'
p1015
I10
tp1016
a(S'malfpad'
p1017
I54
tp1018
a(S'adnorthbase'
p1019
I8
tp1020
a(S'positionrelative'
p1021
I2
tp1022
a(S'malfpad'
p1023
I54
tp1024
a(S'billboardlayout'
p1025
I14
tp1026
a(S'margintop2px'
p1027
I1
tp1028
a(S'malfpad'
p1029
I54
tp1030
a(S'billboardlayout'
p1031
I14
tp1032
a(S'adnorthheight300pxmargin0'
p1033
I1
tp1034
a(S'autooverflowhiddenpositionrelativezindex1overflowhidden'
p1035
I1
tp1036
a(S'jsenabled'
p1037
I5
tp1038
a(S'adlnk'
p1039
I1
tp1040
a(S'fontsize85'
p1041
I1
tp1042
a(S'malfpadstatic'
p1043
I3
tp1044
a(S'adnorth'
p1045
I5
tp1046
a(S'cursorpointerbackgroundrepeatnorepeatbackgroundpositionleft'
p1047
I1
tp1048
a(S'bottomvisibilityhidden'
p1049
I1
tp1050
a(S'malfpad'
p1051
I54
tp1052
a(S'mainrowwrapper'
p1053
I2
tp1054
a(S'malfpad'
p1055
I54
tp1056
a(S'maincolwrapper'
p1057
I3
tp1058
a(S'minwidth1051px'
p1059
I1
tp1060
a(S'malfpad'
p1061
I54
tp1062
a(S'billboardlayout'
p1063
I14
tp1064
a(S'adnorthbase'
p1065
I8
tp1066
a(S'width1041pxmargintop2px'
p1067
I1
tp1068
a(S'malfpad'
p1069
I54
tp1070
a(S'billboardlayout'
p1071
I14
tp1072
a(S'herocol'
p1073
I1
tp1074
a(S'marginleft154px'
p1075
I1
tp1076
a(S'media'
p1077
I8
tp1078
a(S'screen'
p1079
I7
tp1080
a(S'maxwidth'
p1081
I7
tp1082
a(S'1129px'
p1083
I1
tp1084
a(S'malfpad'
p1085
I54
tp1086
a(S'billboardlayout'
p1087
I14
tp1088
a(S'adnorthbase'
p1089
I8
tp1090
a(S'width'
p1091
I5
tp1092
a(S'auto'
p1093
I10
tp1094
a(S'Stencil'
p1095
I13
tp1096
a(S'malfpad'
p1097
I54
tp1098
a(S'adnorthbasewidth1041pxmargin86px'
p1099
I2
tp1100
a(S'auto'
p1101
I10
tp1102
a(S'0'
p1103
I54
tp1104
a(S'media'
p1105
I8
tp1106
a(S'screen'
p1107
I7
tp1108
a(S'maxwidth'
p1109
I7
tp1110
a(S'1213px'
p1111
I1
tp1112
a(S'malfpad'
p1113
I54
tp1114
a(S'billboardlayout'
p1115
I14
tp1116
a(S'adnorthbase'
p1117
I8
tp1118
a(S'width'
p1119
I5
tp1120
a(S'1041pxtextalign'
p1121
I2
tp1122
a(S'centerfloatnonemargin2px'
p1123
I2
tp1124
a(S'auto'
p1125
I10
tp1126
a(S'0'
p1127
I54
tp1128
a(S'malfpad'
p1129
I54
tp1130
a(S'billboardlayout'
p1131
I14
tp1132
a(S'adnorthbase'
p1133
I8
tp1134
a(S'width'
p1135
I5
tp1136
a(S'1041pxtextalign'
p1137
I2
tp1138
a(S'centerfloatnonemargin2px'
p1139
I2
tp1140
a(S'auto'
p1141
I10
tp1142
a(S'15px'
p1143
I2
tp1144
a(S'fixedenabledmalfpad'
p1145
I1
tp1146
a(S'railcol'
p1147
I1
tp1148
a(S'stickyholder'
p1149
I1
tp1150
a(S'height'
p1151
I1
tp1152
a(S'auto'
p1153
I10
tp1154
a(S'important'
p1155
I3
tp1156
a(S'my3columnsfixedenabledmalfpad'
p1157
I1
tp1158
a(S'stickyrailleftholder'
p1159
I1
tp1160
a(S'positionrelative'
p1161
I2
tp1162
a(S'importantbottom'
p1163
I1
tp1164
a(S'auto'
p1165
I10
tp1166
a(S'important'
p1167
I3
tp1168
a(S'media'
p1169
I8
tp1170
a(S'screen'
p1171
I7
tp1172
a(S'minwidth'
p1173
I8
tp1174
a(S'1130px'
p1175
I1
tp1176
a(S'Stencil'
p1177
I13
tp1178
a(S'adbtnsholder'
p1179
I1
tp1180
a(S'width1041px'
p1181
I1
tp1182
a(S'malfpadfpadstate0'
p1183
I2
tp1184
a(S'billboardlayout'
p1185
I14
tp1186
a(S'adnorth'
p1187
I5
tp1188
a(S'Stencil'
p1189
I13
tp1190
a(S'malfpadfpadstate0'
p1191
I2
tp1192
a(S'adnorth'
p1193
I5
tp1194
a(S'marginbottom5px'
p1195
I2
tp1196
a(S'adtl1apppromoadrschfpad2typemarchmadnessStencil'
p1197
I1
tp1198
a(S'myadsTL1displaynone'
p1199
I1
tp1200
a(S'jsenabled'
p1201
I5
tp1202
a(S'fpad'
p1203
I9
tp1204
a(S'displaynone'
p1205
I2
tp1206
a(S'maladcontainer'
p1207
I1
tp1208
a(S'malviewmalmain'
p1209
I1
tp1210
a(S'margin0'
p1211
I1
tp1212
a(S'uaipad'
p1213
I6
tp1214
a(S'minwidth'
p1215
I8
tp1216
a(S'1041px'
p1217
I1
tp1218
a(S'uaipad'
p1219
I6
tp1220
a(S'malfpad'
p1221
I54
tp1222
a(S'masthead'
p1223
I1
tp1224
a(S'minwidth'
p1225
I8
tp1226
a(S'1051pximportant'
p1227
I1
tp1228
a(S'uaipad'
p1229
I6
tp1230
a(S'malfpad'
p1231
I54
tp1232
a(S'mastheadmaincol'
p1233
I1
tp1234
a(S'typemastheaddefault'
p1235
I1
tp1236
a(S'mhwrap'
p1237
I1
tp1238
a(S'logocontainer'
p1239
I1
tp1240
a(S'marginleft'
p1241
I2
tp1242
a(S'0'
p1243
I54
tp1244
a(S'uaipad'
p1245
I6
tp1246
a(S'malfpad'
p1247
I54
tp1248
a(S'billboardlayout'
p1249
I14
tp1250
a(S'maincolwrapper'
p1251
I3
tp1252
a(S'maxwidth'
p1253
I7
tp1254
a(S'100'
p1255
I3
tp1256
a(S'minwidth'
p1257
I8
tp1258
a(S'970px'
p1259
I1
tp1260
a(S'uaipad'
p1261
I6
tp1262
a(S'malfpad'
p1263
I54
tp1264
a(S'billboardlayout'
p1265
I14
tp1266
a(S'adnorthbasefpad'
p1267
I2
tp1268
a(S'width'
p1269
I5
tp1270
a(S'100'
p1271
I3
tp1272
a(S'textalign'
p1273
I2
tp1274
a(S'center'
p1275
I3
tp1276
a(S'float'
p1277
I2
tp1278
a(S'none'
p1279
I6
tp1280
a(S'paddingleft'
p1281
I1
tp1282
a(S'5px'
p1283
I2
tp1284
a(S'uaipad'
p1285
I6
tp1286
a(S'malfpad'
p1287
I54
tp1288
a(S'billboardlayout'
p1289
I14
tp1290
a(S'adnorthbasefpad'
p1291
I2
tp1292
a(S'adnorth'
p1293
I5
tp1294
a(S'width'
p1295
I5
tp1296
a(S'100'
p1297
I3
tp1298
a(S'textalign'
p1299
I2
tp1300
a(S'center'
p1301
I3
tp1302
a(S'float'
p1303
I2
tp1304
a(S'none'
p1305
I6
tp1306
a(S'Ad'
p1307
I3
tp1308
a(S'Feedback'
p1309
I1
tp1310
a(S'AdChoices'
p1311
I1
tp1312
a(S'var'
p1313
I30
tp1314
a(S'MALAdManualReadyCheck1'
p1315
I1
tp1316
a(S'MALPaths'
p1317
I1
tp1318
a(S'images'
p1319
I1
tp1320
a(S'httpsv4syimgcomcvengapple151116t'
p1321
I2
tp1322
a(S'videos'
p1323
I2
tp1324
a(S'httpsv4syimgcomcvengapple151116t'
p1325
I2
tp1326
a(S'scripts'
p1327
I1
tp1328
a(S'httpssyimgcomcvengapple151116t'
p1329
I1
tp1330
a(S'var'
p1331
I30
tp1332
a(S'adfpad'
p1333
I2
tp1334
a(S'function'
p1335
I12
tp1336
a(S'var'
p1337
I30
tp1338
a(S'ua'
p1339
I1
tp1340
a(S'YFPADuadom'
p1341
I1
tp1342
a(S'YFPADdombyId'
p1343
I1
tp1344
a(S'YFPADdombyIdutil'
p1345
I1
tp1346
a(S'YFPADutilbkts'
p1347
I1
tp1348
a(S'appleredir'
p1349
I2
tp1350
a(S'httpwwwapplecomtvcidwwausdispatvcolyahcpcolyah'
p1351
I1
tp1352
a(S'adfpad'
p1353
I2
tp1354
a(S'YFPADBase'
p1355
I1
tp1356
a(S'conf'
p1357
I5
tp1358
a(S'r0CLICKURL'
p1359
I1
tp1360
a(S'z1INTERACTIONURL'
p1361
I1
tp1362
a(S'rBCLICKURLClientSideEditable'
p1363
I1
tp1364
a(S'beap'
p1365
I1
tp1366
a(S'key1'
p1367
I1
tp1368
a(S'appleLIBRARYADID'
p1369
I1
tp1370
a(S'view1'
p1371
I4
tp1372
a(S'nfv'
p1373
I1
tp1374
a(S'10'
p1375
I1
tp1376
a(S'clickTags'
p1377
I1
tp1378
a(S'redir'
p1379
I1
tp1380
a(S'appleredir'
p1381
I2
tp1382
a(S'imgstaticw1041h300'
p1383
I1
tp1384
a(S'imge'
p1385
I1
tp1386
a(S'lhttpssyimgcomcvengapple151116houseada300x250homeadjpg'
p1387
I1
tp1388
a(S'rhttpsmobileyahoocommail'
p1389
I1
tp1390
a(S'altYahoo'
p1391
I1
tp1392
a(S'Mail'
p1393
I2
tp1394
a(S'w300'
p1395
I1
tp1396
a(S'h250'
p1397
I1
tp1398
a(S'adtext'
p1399
I1
tp1400
a(S'px'
p1401
I1
tp1402
a(S'pixels'
p1403
I1
tp1404
a(S'bktfunctionforvar'
p1405
I1
tp1406
a(S'b'
p1407
I1
tp1408
a(S'bkts'
p1409
I1
tp1410
a(S'ifYFPADdomhasClassYFPADuahtml'
p1411
I1
tp1412
a(S'bktbreturn'
p1413
I1
tp1414
a(S'breturn'
p1415
I1
tp1416
a(S'1'
p1417
I42
tp1418
a(S'scoobyIdStencil10'
p1419
I1
tp1420
a(S'maldivmaladcontainer'
p1421
I1
tp1422
a(S'creative'
p1423
I1
tp1424
a(S'nameHomerabbrevhomerimghttpssyimgcomcvengapple151116ccherryblossom1041jpg'
p1425
I1
tp1426
a(S'urlappleredir'
p1427
I3
tp1428
a(S'nameSitupabbrevsitupimghttpssyimgcomcvengapple151116ccherryblossom1041jpg'
p1429
I1
tp1430
a(S'urlappleredir'
p1431
I3
tp1432
a(S'nameAnimalabbrevanimalimghttpssyimgcomcvengapple151116ccherryblossom1041jpg'
p1433
I1
tp1434
a(S'urlappleredir'
p1435
I3
tp1436
a(S'usecreative0'
p1437
I1
tp1438
a(S'istablet0'
p1439
I1
tp1440
a(S'malengaged0'
p1441
I1
tp1442
a(S'malstatic0'
p1443
I1
tp1444
a(S'malcapped0'
p1445
I1
tp1446
a(S'malversion'
p1447
I1
tp1448
a(S'1709'
p1449
I1
tp1450
a(S'tendnull'
p1451
I1
tp1452
a(S'extend'
p1453
I1
tp1454
a(S'initfunction'
p1455
I1
tp1456
a(S'var'
p1457
I30
tp1458
a(S'conf'
p1459
I5
tp1460
a(S'thisconfig'
p1461
I4
tp1462
a(S'confbeap'
p1463
I1
tp1464
a(S'confz1splitbeapclientevent'
p1465
I1
tp1466
a(S'Detecting'
p1467
I1
tp1468
a(S'best'
p1469
I2
tp1470
a(S'page'
p1471
I2
tp1472
a(S'dombyClassNamefpv20'
p1473
I1
tp1474
a(S'confbkt'
p1475
I1
tp1476
a(S'0'
p1477
I54
tp1478
a(S'thisinteractiontrack400'
p1479
I1
tp1480
a(S'fallbackbestpageview'
p1481
I1
tp1482
a(S'else'
p1483
I17
tp1484
a(S'ifconfscoo'
p1485
I1
tp1486
a(S'documentdocumentElementclassName'
p1487
I3
tp1488
a(S'Billboard'
p1489
I13
tp1490
a(S'ifconfbkt'
p1491
I1
tp1492
a(S'byIdadnorthbaseclassName'
p1493
I1
tp1494
a(S'fpad'
p1495
I9
tp1496
a(S'byIdadnorthclassName'
p1497
I2
tp1498
a(S'prxs'
p1499
I1
tp1500
a(S'confview'
p1501
I1
tp1502
a(S'thisbrowsercheck'
p1503
I1
tp1504
a(S'else'
p1505
I17
tp1506
a(S'byIdadnorthbasestyledisplaynone'
p1507
I1
tp1508
a(S'byIdfpadstyledisplayblock'
p1509
I3
tp1510
a(S'thisconfig'
p1511
I4
tp1512
a(S'conf'
p1513
I5
tp1514
a(S'jpfunctionsu'
p1515
I1
tp1516
a(S'windowopenu'
p1517
I1
tp1518
a(S'ttfunctions'
p1519
I1
tp1520
a(S'return'
p1521
I5
tp1522
a(S'startmalfunction'
p1523
I1
tp1524
a(S'var'
p1525
I30
tp1526
a(S'confadfpadconfig'
p1527
I1
tp1528
a(S'try'
p1529
I3
tp1530
a(S'MALAdReadyCheck'
p1531
I1
tp1532
a(S'catche'
p1533
I2
tp1534
a(S'adfpadinteractiontrack20'
p1535
I1
tp1536
a(S'maljsloadfailshowstatic'
p1537
I1
tp1538
a(S'documentbodyclassName'
p1539
I3
tp1540
a(S'malfpadstatic'
p1541
I3
tp1542
a(S'adfpadshowstatic'
p1543
I2
tp1544
a(S'loadEast'
p1545
I1
tp1546
a(S'function'
p1547
I12
tp1548
a(S'var'
p1549
I30
tp1550
a(S'confthisconfig'
p1551
I2
tp1552
a(S'imgeconfimge'
p1553
I1
tp1554
a(S'byIdadiveinnerHTML'
p1555
I1
tp1556
a(S'byIdfpadstyledisplayblock'
p1557
I3
tp1558
a(S'browsercheckfunction'
p1559
I1
tp1560
a(S'var'
p1561
I30
tp1562
a(S'confthisconfig'
p1563
I2
tp1564
a(S'view1'
p1565
I4
tp1566
a(S'ver0'
p1567
I1
tp1568
a(S'uatmp'
p1569
I1
tp1570
a(S'navigatoruserAgenttoString'
p1571
I1
tp1572
a(S'ifuaosnamemacintosh'
p1573
I2
tp1574
a(S'uaosnamewindows'
p1575
I2
tp1576
a(S'ifuaisIE'
p1577
I1
tp1578
a(S'veruaisIE'
p1579
I1
tp1580
a(S'ifver9'
p1581
I1
tp1582
a(S'ifuatmpmatchPhone'
p1583
I1
tp1584
a(S'uatmpmatchTouch'
p1585
I2
tp1586
a(S'view1'
p1587
I4
tp1588
a(S'else'
p1589
I17
tp1590
a(S'view3'
p1591
I5
tp1592
a(S'else'
p1593
I17
tp1594
a(S'view2'
p1595
I5
tp1596
a(S'else'
p1597
I17
tp1598
a(S'ifuaisSafari'
p1599
I1
tp1600
a(S'veruaisSafari'
p1601
I1
tp1602
a(S'ifuaosnamemacintosh'
p1603
I2
tp1604
a(S'ver'
p1605
I2
tp1606
a(S'uatmpmatchVersion09sSafari1'
p1607
I1
tp1608
a(S'ver'
p1609
I2
tp1610
a(S'parseIntverreplaceg'
p1611
I1
tp1612
a(S'ifver700'
p1613
I1
tp1614
a(S'view3'
p1615
I5
tp1616
a(S'else'
p1617
I17
tp1618
a(S'view2'
p1619
I5
tp1620
a(S'else'
p1621
I17
tp1622
a(S'view2'
p1623
I5
tp1624
a(S'else'
p1625
I17
tp1626
a(S'ifuaisChrome'
p1627
I1
tp1628
a(S'veruaisChrome'
p1629
I1
tp1630
a(S'ifver42'
p1631
I1
tp1632
a(S'view3'
p1633
I5
tp1634
a(S'else'
p1635
I17
tp1636
a(S'view2'
p1637
I5
tp1638
a(S'var'
p1639
I30
tp1640
a(S'ver2'
p1641
I1
tp1642
a(S'uatmpmatchOPR'
p1643
I1
tp1644
a(S'ifver2ver2lengthview2'
p1645
I1
tp1646
a(S'else'
p1647
I17
tp1648
a(S'ifuaisFireFox'
p1649
I1
tp1650
a(S'veruaisFireFox'
p1651
I1
tp1652
a(S'ifver40'
p1653
I1
tp1654
a(S'view3'
p1655
I5
tp1656
a(S'else'
p1657
I17
tp1658
a(S'view2'
p1659
I5
tp1660
a(S'navigatoruserAgentindexOfEdge'
p1661
I1
tp1662
a(S'1'
p1663
I42
tp1664
a(S'view3'
p1665
I5
tp1666
a(S'uaosnamewindows'
p1667
I2
tp1668
a(S'uaisIE9'
p1669
I1
tp1670
a(S'navigatormsMaxTouchPoints5'
p1671
I1
tp1672
a(S'windowscreenheightwindowouterHeight'
p1673
I1
tp1674
a(S'uatmpmatchTouch'
p1675
I2
tp1676
a(S'uatmpmatchTablet'
p1677
I1
tp1678
a(S'view1'
p1679
I4
tp1680
a(S'thisinteractiontrack30'
p1681
I1
tp1682
a(S'mssurface'
p1683
I1
tp1684
a(S'ifview1'
p1685
I1
tp1686
a(S'byIdfpadstyledisplaynone'
p1687
I1
tp1688
a(S'documentbodyclassName'
p1689
I3
tp1690
a(S'malfpad'
p1691
I54
tp1692
a(S'byIdadnorthclassName'
p1693
I2
tp1694
a(S'adw'
p1695
I2
tp1696
a(S'ifview2'
p1697
I1
tp1698
a(S'documentbodyclassName'
p1699
I3
tp1700
a(S'malfpadstatic'
p1701
I3
tp1702
a(S'else'
p1703
I17
tp1704
a(S'byIdfpadstyledisplayblock'
p1705
I3
tp1706
a(S'return'
p1707
I5
tp1708
a(S'view'
p1709
I4
tp1710
a(S'showstaticfunction'
p1711
I1
tp1712
a(S'var'
p1713
I30
tp1714
a(S'conf'
p1715
I5
tp1716
a(S'thisconfig'
p1717
I4
tp1718
a(S'c'
p1719
I1
tp1720
a(S'confcreativeconfusecreative'
p1721
I1
tp1722
a(S'sh'
p1723
I2
tp1724
a(S'byIdadnorth'
p1725
I2
tp1726
a(S'shstylebackgroundImage'
p1727
I1
tp1728
a(S'urlcimg'
p1729
I1
tp1730
a(S'domaddListenerclickfunction'
p1731
I1
tp1732
a(S'adfpadjpclickthroughstaticcurl'
p1733
I1
tp1734
a(S'sh'
p1735
I2
tp1736
a(S'setTimeoutfunction'
p1737
I4
tp1738
a(S'shstylevisibilityvisible'
p1739
I1
tp1740
a(S'50'
p1741
I2
tp1742
a(S'cconsolefunctions'
p1743
I1
tp1744
a(S'ifwindowconsoleconsolelogmal'
p1745
I1
tp1746
a(S'metrics'
p1747
I1
tp1748
a(S'adinit'
p1749
I1
tp1750
a(S'function'
p1751
I12
tp1752
a(S'var'
p1753
I30
tp1754
a(S'conf'
p1755
I5
tp1756
a(S'thisconfig'
p1757
I4
tp1758
a(S'confusecreative'
p1759
I1
tp1760
a(S'MathfloorMathrandomconfcreativelength'
p1761
I1
tp1762
a(S'ifconfview1'
p1763
I1
tp1764
a(S'byIdadnorth'
p1765
I2
tp1766
a(S'thisadinit'
p1767
I1
tp1768
a(S'return'
p1769
I5
tp1770
a(S'ifconfview3'
p1771
I1
tp1772
a(S'windowMALCreativeconfcreativeconfusecreativename'
p1773
I1
tp1774
a(S'ifwindowconsole'
p1775
I1
tp1776
a(S'consolelogwindowMALCreativewindowMALCreative'
p1777
I1
tp1778
a(S'consolelogMALVersionconfmalversion'
p1779
I1
tp1780
a(S'var'
p1781
I30
tp1782
a(S'maldiv'
p1783
I1
tp1784
a(S'documentcreateElementdiv'
p1785
I1
tp1786
a(S'maldivid'
p1787
I1
tp1788
a(S'confmaldiv'
p1789
I1
tp1790
a(S'byIdadnorthappendChildmaldiv'
p1791
I1
tp1792
a(S'thisttviewfull'
p1793
I1
tp1794
a(S'setTimeoutthisstartmal50'
p1795
I1
tp1796
a(S'else'
p1797
I17
tp1798
a(S'ifconfview2'
p1799
I1
tp1800
a(S'thisttviewstatic'
p1801
I1
tp1802
a(S'adfpadshowstatic'
p1803
I2
tp1804
a(S'else'
p1805
I17
tp1806
a(S'thisinteractiontrack13'
p1807
I1
tp1808
a(S'yviewtargetaway'
p1809
I1
tp1810
a(S'thisloadEast'
p1811
I1
tp1812
a(S'ifconfbkt1'
p1813
I1
tp1814
a(S'thisinteractiontrackutilhashStringbktconfbkt'
p1815
I1
tp1816
a(S'bktconfbkt'
p1817
I1
tp1818
a(S'Yahoo'
p1819
I26
tp1820
a(S'stands'
p1821
I1
tp1822
a(S'Paris'
p1823
I11
tp1824
a(S'In'
p1825
I3
tp1826
a(S'dark'
p1827
I1
tp1828
a(S'hour'
p1829
I1
tp1830
a(S'we'
p1831
I2
tp1832
a(S'support'
p1833
I1
tp1834
a(S'people'
p1835
I2
tp1836
a(S'France'
p1837
I7
tp1838
a(S'Sign'
p1839
I7
tp1840
a(S'save'
p1841
I3
tp1842
a(S'your'
p1843
I25
tp1844
a(S'preferenceYahoo'
p1845
I1
tp1846
a(S'Close'
p1847
I2
tp1848
a(S'Only'
p1849
I1
tp1850
a(S'Yahoo'
p1851
I26
tp1852
a(S'Gluten'
p1853
I1
tp1854
a(S'explained'
p1855
I1
tp1856
a(S'Bianna'
p1857
I1
tp1858
a(S'Golodryga'
p1859
I1
tp1860
a(S'News'
p1861
I6
tp1862
a(S'Finance'
p1863
I2
tp1864
a(S'Anchor'
p1865
I2
tp1866
a(S'Yahoo'
p1867
I26
tp1868
a(S'News'
p1869
I6
tp1870
a(S'Ben'
p1871
I1
tp1872
a(S'Carson'
p1873
I1
tp1874
a(S'stabbing'
p1875
I1
tp1876
a(S'Syria'
p1877
I4
tp1878
a(S'Trump'
p1879
I1
tp1880
a(S'Katie'
p1881
I1
tp1882
a(S'Couric'
p1883
I1
tp1884
a(S'Global'
p1885
I1
tp1886
a(S'News'
p1887
I6
tp1888
a(S'Anchor'
p1889
I2
tp1890
a(S'Yahoo'
p1891
I26
tp1892
a(S'News'
p1893
I6
tp1894
a(S'The'
p1895
I9
tp1896
a(S'courtship'
p1897
I1
tp1898
a(S'LaMarcus'
p1899
I1
tp1900
a(S'Aldridge'
p1901
I1
tp1902
a(S'Adrian'
p1903
I1
tp1904
a(S'Wojnarowski'
p1905
I1
tp1906
a(S'Columnist'
p1907
I1
tp1908
a(S'Yahoo'
p1909
I26
tp1910
a(S'Sports'
p1911
I5
tp1912
a(S'Top'
p1913
I2
tp1914
a(S'Stories'
p1915
I2
tp1916
a(g459
I42
tp1917
a(S'France'
p1918
I7
tp1919
a(S'swoops'
p1920
I1
tp1921
a(S'suspected'
p1922
I1
tp1923
a(S'Islamists'
p1924
I1
tp1925
a(S'bombs'
p1926
I1
tp1927
a(S'IS'
p1928
I3
tp1929
a(S'targets'
p1930
I1
tp1931
a(S'Syria'
p1932
I4
tp1933
a(S'50'
p1934
I2
tp1935
a(S'minutes'
p1936
I1
tp1937
a(S'ago'
p1938
I2
tp1939
a(S'2'
p1940
I6
tp1941
a(S'Belgian'
p1942
I1
tp1943
a(S'prime'
p1944
I1
tp1945
a(S'suspect'
p1946
I1
tp1947
a(S'commander'
p1948
I1
tp1949
a(S'Paris'
p1950
I11
tp1951
a(S'attacks'
p1952
I3
tp1953
a(S'French'
p1954
I4
tp1955
a(S'source'
p1956
I1
tp1957
a(S'3'
p1958
I1
tp1959
a(S'Britain'
p1960
I1
tp1961
a(S'hire'
p1962
I1
tp1963
a(S'1900'
p1964
I1
tp1965
a(S'more'
p1966
I25
tp1967
a(S'spies'
p1968
I1
tp1969
a(S'defend'
p1970
I1
tp1971
a(S'against'
p1972
I2
tp1973
a(S'IS'
p1974
I3
tp1975
a(S'militants'
p1976
I1
tp1977
a(S'4'
p1978
I1
tp1979
a(S'Clinton'
p1980
I1
tp1981
a(S'aide'
p1982
I1
tp1983
a(S'defends'
p1984
I1
tp1985
a(S'her'
p1986
I5
tp1987
a(S'debate'
p1988
I2
tp1989
a(S'remarks'
p1990
I1
tp1991
a(S'Wall'
p1992
I1
tp1993
a(S'Street'
p1994
I1
tp1995
a(S'money'
p1996
I1
tp1997
a(S'5'
p1998
I1
tp1999
a(S'Protests'
p2000
I1
tp2001
a(S'erupt'
p2002
I1
tp2003
a(S'after'
p2004
I3
tp2005
a(S'black'
p2006
I1
tp2007
a(S'man'
p2008
I1
tp2009
a(S'shot'
p2010
I1
tp2011
a(S'police'
p2012
I3
tp2013
a(S'Minneapolis'
p2014
I1
tp2015
a(S'Delete'
p2016
I10
tp2017
a(S'Weather'
p2018
I3
tp2019
a(S'Cheonan'
p2020
I1
tp2021
a(S'Change'
p2022
I1
tp2023
a(S'location'
p2024
I1
tp2025
a(S'lrm55'
p2026
I1
tp2027
a(S'degF'
p2028
I4
tp2029
a(S'degC'
p2030
I4
tp2031
a(S'Light'
p2032
I1
tp2033
a(S'Rain'
p2034
I1
tp2035
a(S'lrm60degF'
p2036
I2
tp2037
a(S'High'
p2038
I4
tp2039
a(S'lrm53degF'
p2040
I2
tp2041
a(S'Low'
p2042
I4
tp2043
a(S'Today'
p2044
I1
tp2045
a(S'lrm565'
p2046
I1
tp2047
a(S'degF'
p2048
I4
tp2049
a(S'degC'
p2050
I4
tp2051
a(S'lrm60degF'
p2052
I2
tp2053
a(S'High'
p2054
I4
tp2055
a(S'lrm53degF'
p2056
I2
tp2057
a(S'Low'
p2058
I4
tp2059
a(S'Tomorrow'
p2060
I1
tp2061
a(S'lrm585'
p2062
I1
tp2063
a(S'degF'
p2064
I4
tp2065
a(S'degC'
p2066
I4
tp2067
a(S'lrm66degF'
p2068
I1
tp2069
a(S'High'
p2070
I4
tp2071
a(S'lrm51degF'
p2072
I1
tp2073
a(S'Low'
p2074
I4
tp2075
a(S'Wednesday'
p2076
I1
tp2077
a(S'lrm52'
p2078
I1
tp2079
a(S'degF'
p2080
I4
tp2081
a(S'degC'
p2082
I4
tp2083
a(S'lrm57degF'
p2084
I1
tp2085
a(S'High'
p2086
I4
tp2087
a(S'lrm47degF'
p2088
I1
tp2089
a(S'Low'
p2090
I4
tp2091
a(S'Delete'
p2092
I10
tp2093
a(S'Quotes'
p2094
I1
tp2095
a(S'Yahoo'
p2096
I26
tp2097
a(S'Finance'
p2098
I2
tp2099
a(S'Markets'
p2100
I1
tp2101
a(S'SP'
p2102
I1
tp2103
a(S'500'
p2104
I3
tp2105
a(S'202300'
p2106
I1
tp2107
a(S'112'
p2108
I1
tp2109
a(S'NASDAQ'
p2110
I1
tp2111
a(S'Composite'
p2112
I1
tp2113
a(S'492790'
p2114
I1
tp2115
a(S'154'
p2116
I1
tp2117
a(S'Dow'
p2118
I1
tp2119
a(S'Jones'
p2120
I1
tp2121
a(S'Indust\xe2\x80\xa6'
p2122
I1
tp2123
a(S'1724500'
p2124
I1
tp2125
a(S'116'
p2126
I3
tp2127
a(S'My'
p2128
I4
tp2129
a(S'Portfolio'
p2130
I1
tp2131
a(S'Sign'
p2132
I7
tp2133
a(S'view'
p2134
I4
tp2135
a(S'your'
p2136
I25
tp2137
a(S'portfoliosYahoo'
p2138
I1
tp2139
a(S'Enter'
p2140
I4
tp2141
a(S'companyticker'
p2142
I1
tp2143
a(S'Delete'
p2144
I10
tp2145
a(S'Scores'
p2146
I1
tp2147
a(S'Yahoo'
p2148
I26
tp2149
a(S'Sports'
p2150
I5
tp2151
a(S'Live'
p2152
I2
tp2153
a(S'Visit'
p2154
I3
tp2155
a(S'Yahoo'
p2156
I26
tp2157
a(S'Sports'
p2158
I5
tp2159
a(S'latest'
p2160
I1
tp2161
a(S'scores'
p2162
I1
tp2163
a(S'news'
p2164
I3
tp2165
a(S'Results'
p2166
I1
tp2167
a(S'NBA'
p2168
I5
tp2169
a(S'Det'
p2170
I1
tp2171
a(S'85'
p2172
I1
tp2173
a(S'LAL'
p2174
I1
tp2175
a(S'97'
p2176
I1
tp2177
a(S'Final'
p2178
I4
tp2179
a(S'1116'
p2180
I4
tp2181
a(S'NBA'
p2182
I5
tp2183
a(S'Tor'
p2184
I1
tp2185
a(S'101'
p2186
I1
tp2187
a(S'Sac'
p2188
I1
tp2189
a(S'107'
p2190
I1
tp2191
a(S'Final'
p2192
I4
tp2193
a(S'1116'
p2194
I4
tp2195
a(S'NFL'
p2196
I4
tp2197
a(S'Ari'
p2198
I1
tp2199
a(S'39'
p2200
I1
tp2201
a(S'Sea'
p2202
I1
tp2203
a(S'32'
p2204
I2
tp2205
a(S'Final'
p2206
I4
tp2207
a(S'1116'
p2208
I4
tp2209
a(S'NFL'
p2210
I4
tp2211
a(S'KC'
p2212
I1
tp2213
a(S'29'
p2214
I1
tp2215
a(S'Den'
p2216
I1
tp2217
a(S'13'
p2218
I2
tp2219
a(S'Final'
p2220
I4
tp2221
a(S'1116'
p2222
I4
tp2223
a(S'Coming'
p2224
I1
tp2225
a(S'Up'
p2226
I4
tp2227
a(S'NBA'
p2228
I5
tp2229
a(S'Dal'
p2230
I1
tp2231
a(S'Phi'
p2232
I1
tp2233
a(S'1117'
p2234
I4
tp2235
a(S'900'
p2236
I2
tp2237
a(S'AM'
p2238
I4
tp2239
a(S'South'
p2240
I5
tp2241
a(S'Korea'
p2242
I4
tp2243
a(S'Time'
p2244
I4
tp2245
a(S'NBA'
p2246
I5
tp2247
a(S'OKC'
p2248
I1
tp2249
a(S'Mem'
p2250
I1
tp2251
a(S'1117'
p2252
I4
tp2253
a(S'1000'
p2254
I3
tp2255
a(S'AM'
p2256
I4
tp2257
a(S'South'
p2258
I5
tp2259
a(S'Korea'
p2260
I4
tp2261
a(S'Time'
p2262
I4
tp2263
a(S'NFL'
p2264
I4
tp2265
a(S'Hou'
p2266
I1
tp2267
a(S'Cin'
p2268
I1
tp2269
a(S'1117'
p2270
I4
tp2271
a(S'1030'
p2272
I1
tp2273
a(S'AM'
p2274
I4
tp2275
a(S'South'
p2276
I5
tp2277
a(S'Korea'
p2278
I4
tp2279
a(S'Time'
p2280
I4
tp2281
a(S'NHL'
p2282
I2
tp2283
a(S'Anh'
p2284
I1
tp2285
a(S'Car'
p2286
I1
tp2287
a(S'1117'
p2288
I4
tp2289
a(S'900'
p2290
I2
tp2291
a(S'AM'
p2292
I4
tp2293
a(S'South'
p2294
I5
tp2295
a(S'Korea'
p2296
I4
tp2297
a(S'Time'
p2298
I4
tp2299
a(S'My'
p2300
I4
tp2301
a(S'Teams'
p2302
I1
tp2303
a(S'Sign'
p2304
I7
tp2305
a(S'view'
p2306
I4
tp2307
a(S'your'
p2308
I25
tp2309
a(S'favorite'
p2310
I2
tp2311
a(S'teamsYahoo'
p2312
I1
tp2313
a(S'Find'
p2314
I1
tp2315
a(S'team'
p2316
I1
tp2317
a(S'Delete'
p2318
I10
tp2319
a(S'Flickr'
p2320
I1
tp2321
a(S'See'
p2322
I2
tp2323
a(S'more'
p2324
I25
tp2325
a(S'photos'
p2326
I1
tp2327
a(S'Je'
p2328
I1
tp2329
a(S'suis'
p2330
I1
tp2331
a(S'Paris'
p2332
I11
tp2333
a(S'Delete'
p2334
I10
tp2335
a(S'Featured'
p2336
I1
tp2337
a(S'Videos'
p2338
I1
tp2339
a(S'Yahoo'
p2340
I26
tp2341
a(S'Screen'
p2342
I1
tp2343
a(S'Watch'
p2344
I1
tp2345
a(S'new'
p2346
I10
tp2347
a(S'trailer'
p2348
I1
tp2349
a(S'39My'
p2350
I1
tp2351
a(S'Big'
p2352
I2
tp2353
a(S'Fat'
p2354
I1
tp2355
a(S'Greek'
p2356
I1
tp2357
a(S'Wedding'
p2358
I1
tp2359
a(S'239Catching'
p2360
I1
tp2361
a(S'up'
p2362
I7
tp2363
a(S'39Voice\xe2\x80\x99'
p2364
I1
tp2365
a(S'champ'
p2366
I1
tp2367
a(S'Sawyer'
p2368
I1
tp2369
a(S'FredericksEpic'
p2370
I1
tp2371
a(S'Ride'
p2372
I1
tp2373
a(S'2016'
p2374
I2
tp2375
a(S'Ford'
p2376
I1
tp2377
a(S'Mustang'
p2378
I1
tp2379
a(S'Shelby'
p2380
I1
tp2381
a(S'GT350How'
p2382
I1
tp2383
a(S'make'
p2384
I2
tp2385
a(S'glutenfree'
p2386
I1
tp2387
a(S'stuffing'
p2388
I1
tp2389
a(S'Thanksgiving'
p2390
I2
tp2391
a(S'Search'
p2392
I6
tp2393
a(S'videos'
p2394
I2
tp2395
a(S'Delete'
p2396
I10
tp2397
a(S'Recommended'
p2398
I1
tp2399
a(S'Games'
p2400
I2
tp2401
a(S'More'
p2402
I6
tp2403
a(S'Games'
p2404
I2
tp2405
a(S'raquo'
p2406
I2
tp2407
a(S'Delete'
p2408
I10
tp2409
a(S'Yahoo'
p2410
I26
tp2411
a(S'Daily'
p2412
I1
tp2413
a(S'Fantasy'
p2414
I1
tp2415
a(S'Sports'
p2416
I5
tp2417
a(S'Next'
p2418
I2
tp2419
a(S'Contest'
p2420
I4
tp2421
a(S'Starts'
p2422
I1
tp2423
a(S'095401'
p2424
I1
tp2425
a(S'NBA'
p2426
I5
tp2427
a(S'15K'
p2428
I1
tp2429
a(S'Tournament'
p2430
I3
tp2431
a(S'2K'
p2432
I1
tp2433
a(S'1st'
p2434
I3
tp2435
a(S'Enter'
p2436
I4
tp2437
a(S'Contest'
p2438
I4
tp2439
a(S'NHL'
p2440
I2
tp2441
a(S'3K'
p2442
I1
tp2443
a(S'Tournament'
p2444
I3
tp2445
a(S'300'
p2446
I2
tp2447
a(S'1st'
p2448
I3
tp2449
a(S'Enter'
p2450
I4
tp2451
a(S'Contest'
p2452
I4
tp2453
a(S'NFL'
p2454
I4
tp2455
a(S'10K'
p2456
I1
tp2457
a(S'Tournament'
p2458
I3
tp2459
a(S'1K'
p2460
I1
tp2461
a(S'1st'
p2462
I3
tp2463
a(S'M\xe2\x80\xa6'
p2464
I1
tp2465
a(S'Enter'
p2466
I4
tp2467
a(S'Contest'
p2468
I4
tp2469
a(S'View'
p2470
I2
tp2471
a(S'todays'
p2472
I1
tp2473
a(S'contests'
p2474
I1
tp2475
a(S'Delete'
p2476
I10
tp2477
a(S'Horoscopes'
p2478
I1
tp2479
a(S'Yahoo'
p2480
I26
tp2481
a(S'Celebrity'
p2482
I2
tp2483
a(S'Scorpio'
p2484
I1
tp2485
a(S'10231121'
p2486
I1
tp2487
a(S'Although'
p2488
I1
tp2489
a(S'you'
p2490
I24
tp2491
a(S'harbor'
p2492
I1
tp2493
a(S'great'
p2494
I2
tp2495
a(S'hopes'
p2496
I1
tp2497
a(S'moving'
p2498
I1
tp2499
a(S'an'
p2500
I6
tp2501
a(S'ongoing'
p2502
I1
tp2503
a(S'discussion'
p2504
I1
tp2505
a(S'more'
p2506
I25
tp2507
a(S'meaningful'
p2508
I1
tp2509
a(S'direction'
p2510
I1
tp2511
a(S'conversation'
p2512
I1
tp2513
a(S'might'
p2514
I1
tp2515
a(S'go'
p2516
I2
tp2517
a(S'according'
p2518
I1
tp2519
a(S'your'
p2520
I25
tp2521
a(S'wishes'
p2522
I1
tp2523
a(S'The'
p2524
I9
tp2525
a(S'provocative'
p2526
I1
tp2527
a(S'Moon39s'
p2528
I1
tp2529
a(S'cosmic'
p2530
I1
tp2531
a(S'hookup'
p2532
I1
tp2533
a(S'your'
p2534
I25
tp2535
a(S'key'
p2536
I2
tp2537
a(S'planet'
p2538
I1
tp2539
a(S'Pluto'
p2540
I1
tp2541
a(S'just'
p2542
I4
tp2543
a(S'won39t'
p2544
I1
tp2545
a(S'leave'
p2546
I1
tp2547
a(S'you'
p2548
I24
tp2549
a(S'alone'
p2550
I1
tp2551
a(S'today'
p2552
I1
tp2553
a(S'creating'
p2554
I1
tp2555
a(S'difficulties'
p2556
I1
tp2557
a(S'you'
p2558
I24
tp2559
a(S'attempt'
p2560
I1
tp2561
a(S'communicate'
p2562
I2
tp2563
a(S'your'
p2564
I25
tp2565
a(S'intense'
p2566
I1
tp2567
a(S'feelings'
p2568
I1
tp2569
a(S'your'
p2570
I25
tp2571
a(S'friends'
p2572
I2
tp2573
a(S'coworkers'
p2574
I1
tp2575
a(S'Thankfully'
p2576
I1
tp2577
a(S'healthy'
p2578
I1
tp2579
a(S'debate'
p2580
I2
tp2581
a(S'can'
p2582
I4
tp2583
a(S'work'
p2584
I1
tp2585
a(S'your'
p2586
I25
tp2587
a(S'advantage'
p2588
I1
tp2589
a(S'you39re'
p2590
I1
tp2591
a(S'willing'
p2592
I1
tp2593
a(S'adapt'
p2594
I1
tp2595
a(S'changing'
p2596
I1
tp2597
a(S'dynamics'
p2598
I1
tp2599
a(S'Let'
p2600
I2
tp2601
a(S'go'
p2602
I2
tp2603
a(S'your'
p2604
I25
tp2605
a(S'attachment'
p2606
I1
tp2607
a(S'any'
p2608
I1
tp2609
a(S'preconceived'
p2610
I1
tp2611
a(S'outcome'
p2612
I1
tp2613
a(S'simply'
p2614
I1
tp2615
a(S'seek'
p2616
I1
tp2617
a(S'satisfaction'
p2618
I1
tp2619
a(S'staying'
p2620
I1
tp2621
a(S'present'
p2622
I1
tp2623
a(S'each'
p2624
I1
tp2625
a(S'moment'
p2626
I1
tp2627
a(S'Get'
p2628
I2
tp2629
a(S'Your'
p2630
I1
tp2631
a(S'Complete'
p2632
I1
tp2633
a(S'Cosmic'
p2634
I1
tp2635
a(S'Profile'
p2636
I1
tp2637
a(S'More'
p2638
I6
tp2639
a(S'Not'
p2640
I1
tp2641
a(S'your'
p2642
I25
tp2643
a(S'sign'
p2644
I1
tp2645
a(S'Delete'
p2646
I10
tp2647
a(S'Comics'
p2648
I1
tp2649
a(g299
I2
tp2650
a(S'Chickweed'
p2651
I1
tp2652
a(S'Lane'
p2653
I1
tp2654
a(S'BC'
p2655
I1
tp2656
a(S'Dilbert'
p2657
I1
tp2658
a(S'Garfield'
p2659
I1
tp2660
a(S'Luann'
p2661
I1
tp2662
a(S'Wizard'
p2663
I1
tp2664
a(S'Id'
p2665
I1
tp2666
a(S'Non'
p2667
I1
tp2668
a(S'Sequitur'
p2669
I1
tp2670
a(S'See'
p2671
I2
tp2672
a(S'more'
p2673
I25
tp2674
a(S'Delete'
p2675
I10
tp2676
a(S'About'
p2677
I1
tp2678
a(S'YahooTermsPrivacy'
p2679
I1
tp2680
a(S'UpdatedAdvertiseAbout'
p2681
I1
tp2682
a(S'our'
p2683
I2
tp2684
a(S'AdsCareersHelpFeedback'
p2685
I1
tp2686
a(S'Back'
p2687
I1
tp2688
a(S'To'
p2689
I2
tp2690
a(S'Top'
p2691
I2
tp2692
a(S'France'
p2693
I7
tp2694
a(S'carries'
p2695
I2
tp2696
a(S'out'
p2697
I6
tp2698
a(S'raids'
p2699
I3
tp2700
a(S'names'
p2701
I2
tp2702
a(g1940
I6
tp2703
a(S'more'
p2704
I25
tp2705
a(S'suspects'
p2706
I1
tp2707
a(S'French'
p2708
I4
tp2709
a(S'police'
p2710
I3
tp2711
a(S'raided'
p2712
I2
tp2713
a(S'more'
p2714
I25
tp2715
a(S'than'
p2716
I4
tp2717
a(S'150'
p2718
I2
tp2719
a(S'locations'
p2720
I2
tp2721
a(S'overnight'
p2722
I3
tp2723
a(S'authorities'
p2724
I2
tp2725
a(S'identified'
p2726
I2
tp2727
a(S'two'
p2728
I5
tp2729
a(S'more'
p2730
I25
tp2731
a(S'potential'
p2732
I2
tp2733
a(S'suicide'
p2734
I3
tp2735
a(S'bombersnbsp'
p2736
I1
tp2737
a(S'39We'
p2738
I2
tp2739
a(S'war39nbsp187'
p2740
I1
tp2741
a(S'More'
p2742
I6
tp2743
a(S'stories'
p2744
I6
tp2745
a(S'French'
p2746
I4
tp2747
a(S'raids'
p2748
I3
tp2749
a(S'overnight'
p2750
I3
tp2751
a(S'Boy'
p2752
I1
tp2753
a(S'brings'
p2754
I1
tp2755
a(S'rival'
p2756
I1
tp2757
a(S'teams'
p2758
I3
tp2759
a(S'together'
p2760
I2
tp2761
a(S'Obama'
p2762
I2
tp2763
a(S'backs'
p2764
I1
tp2765
a(S'Mizzou'
p2766
I2
tp2767
a(S'protest'
p2768
I1
tp2769
a(S'Bieber39s'
p2770
I2
tp2771
a(S'cool'
p2772
I1
tp2773
a(S'new'
p2774
I10
tp2775
a(S'album'
p2776
I2
tp2777
a(S'Easy'
p2778
I1
tp2779
a(S'DIY'
p2780
I1
tp2781
a(S'tips'
p2782
I2
tp2783
a(S'flu'
p2784
I2
tp2785
a(S'season'
p2786
I2
tp2787
a(g459
I42
tp2788
a(S'40'
p2789
I2
tp2790
a(S'Previous'
p2791
I1
tp2792
a(S'set'
p2793
I2
tp2794
a(S'stories'
p2795
I6
tp2796
a(S'Next'
p2797
I2
tp2798
a(S'set'
p2799
I2
tp2800
a(S'stories'
p2801
I6
tp2802
a(S'All'
p2803
I1
tp2804
a(S'Stories'
p2805
I2
tp2806
a(S'News'
p2807
I6
tp2808
a(S'Entertainment'
p2809
I1
tp2810
a(S'Sports'
p2811
I5
tp2812
a(S'Business'
p2813
I1
tp2814
a(S'More'
p2815
I6
tp2816
a(S'Lifestyles'
p2817
I1
tp2818
a(S'Technology'
p2819
I1
tp2820
a(S'Science'
p2821
I1
tp2822
a(S'You'
p2823
I1
tp2824
a(S'Might'
p2825
I1
tp2826
a(S'Like'
p2827
I1
tp2828
a(S'Anonymous'
p2829
I2
tp2830
a(S'Threatens'
p2831
I1
tp2832
a(S'ISIS'
p2833
I4
tp2834
a(S'With'
p2835
I2
tp2836
a(S'\xe2\x80\x98Major'
p2837
I1
tp2838
a(S'Cyber'
p2839
I1
tp2840
a(S'Attacks\xe2\x80\x99'
p2841
I1
tp2842
a(S'Following'
p2843
I1
tp2844
a(S'Paris'
p2845
I11
tp2846
a(S'Terror'
p2847
I1
tp2848
a(S'TragedyHacker'
p2849
I1
tp2850
a(S'collective'
p2851
I1
tp2852
a(S'Anonymous'
p2853
I2
tp2854
a(S'has'
p2855
I4
tp2856
a(S'vowed'
p2857
I1
tp2858
a(S'inflict'
p2859
I1
tp2860
a(S'\xe2\x80\x98major'
p2861
I1
tp2862
a(S'cyber'
p2863
I1
tp2864
a(S'attack\xe2\x80\x99'
p2865
I1
tp2866
a(S'ISIS'
p2867
I4
tp2868
a(S'following'
p2869
I2
tp2870
a(S'terrorist'
p2871
I1
tp2872
a(S'attacks'
p2873
I3
tp2874
a(S'Paris'
p2875
I11
tp2876
a(S'Friday'
p2877
I1
tp2878
a(S'13th'
p2879
I1
tp2880
a(S'have'
p2881
I6
tp2882
a(S'so'
p2883
I3
tp2884
a(S'far'
p2885
I1
tp2886
a(S'claimed'
p2887
I1
tp2888
a(S'129'
p2889
I1
tp2890
a(S'lives'
p2891
I1
tp2892
a(S'Daesh'
p2893
I1
tp2894
a(S'term'
p2895
I1
tp2896
a(S'most'
p2897
I4
tp2898
a(S'Arab'
p2899
I1
tp2900
a(S'states'
p2901
I1
tp2902
a(S'some'
p2903
I3
tp2904
a(S'European'
p2905
I1
tp2906
a(S'governments'
p2907
I1
tp2908
a(S'use'
p2909
I2
tp2910
a(S'refer'
p2911
I1
tp2912
a(S'Isis'
p2913
I1
tp2914
a(S'an'
p2915
I6
tp2916
a(S'Arabic'
p2917
I1
tp2918
a(S'acronym'
p2919
I1
tp2920
a(S'the\xe2\x80\xa6Libby'
p2921
I1
tp2922
a(S'Plummer39s'
p2923
I1
tp2924
a(S'Yahoo'
p2925
I26
tp2926
a(S'Tech'
p2927
I1
tp2928
a(S'TumblrAct'
p2929
I1
tp2930
a(S'Of'
p2931
I4
tp2932
a(S'TerrorUnrest'
p2933
I1
tp2934
a(S'Conflicts'
p2935
I3
tp2936
a(S'WarIslamic'
p2937
I1
tp2938
a(S'State'
p2939
I9
tp2940
a(S'Iraq'
p2941
I4
tp2942
a(S'LevantMore'
p2943
I2
tp2944
a(S'like'
p2945
I39
tp2946
a(S'thisRemoveDid'
p2947
I1
tp2948
a(S'Angelina'
p2949
I1
tp2950
a(S'Jolie'
p2951
I1
tp2952
a(S'Really'
p2953
I1
tp2954
a(S'Say'
p2955
I1
tp2956
a(S'ThatAs'
p2957
I1
tp2958
a(S'world'
p2959
I2
tp2960
a(S'shaken'
p2961
I1
tp2962
a(S'Paris'
p2963
I11
tp2964
a(S'attacks'
p2965
I3
tp2966
a(S'took'
p2967
I1
tp2968
a(S'place'
p2969
I1
tp2970
a(S'weekend'
p2971
I1
tp2972
a(S'tragic'
p2973
I1
tp2974
a(S'incident'
p2975
I1
tp2976
a(S'highlight'
p2977
I1
tp2978
a(S'most'
p2979
I4
tp2980
a(S'talked'
p2981
I1
tp2982
a(S'about'
p2983
I10
tp2984
a(S'topic'
p2985
I1
tp2986
a(S'social'
p2987
I1
tp2988
a(S'media'
p2989
I8
tp2990
a(S'seeing'
p2991
I2
tp2992
a(S'all'
p2993
I5
tp2994
a(S'kinds'
p2995
I2
tp2996
a(S'reactions'
p2997
I1
tp2998
a(S'including'
p2999
I1
tp3000
a(S'quotes'
p3001
I1
tp3002
a(S'stars'
p3003
I1
tp3004
a(S'At'
p3005
I1
tp3006
a(S'time'
p3007
I2
tp3008
a(S'article'
p3009
I1
tp3010
a(S'written'
p3011
I1
tp3012
a(S'post'
p3013
I2
tp3014
a(S'shared'
p3015
I1
tp3016
a(S'more'
p3017
I25
tp3018
a(S'than'
p3019
I4
tp3020
a(S'677000\xe2\x80\xa6Yahoo'
p3021
I1
tp3022
a(S'Celebrity'
p3023
I2
tp3024
a(S'XECelebritiesAngelina'
p3025
I1
tp3026
a(S'JolieSocial'
p3027
I1
tp3028
a(S'mediaMore'
p3029
I1
tp3030
a(S'like'
p3031
I39
tp3032
a(S'thisRemoveHow'
p3033
I1
tp3034
a(S'Holly'
p3035
I2
tp3036
a(S'Holm'
p3037
I1
tp3038
a(S'celebrated'
p3039
I1
tp3040
a(S'her'
p3041
I5
tp3042
a(S'lifechanging'
p3043
I1
tp3044
a(S'KO'
p3045
I1
tp3046
a(S'win'
p3047
I2
tp3048
a(S'over'
p3049
I3
tp3050
a(S'Ronda'
p3051
I2
tp3052
a(S'RouseyThe'
p3053
I1
tp3054
a(S'new'
p3055
I10
tp3056
a(S'women39s'
p3057
I1
tp3058
a(S'bantamweight'
p3059
I1
tp3060
a(S'champion'
p3061
I1
tp3062
a(S'said'
p3063
I5
tp3064
a(S'she39s'
p3065
I1
tp3066
a(S'been'
p3067
I2
tp3068
a(S'amazed'
p3069
I1
tp3070
a(S'reaction'
p3071
I1
tp3072
a(S'her'
p3073
I5
tp3074
a(S'win'
p3075
I2
tp3076
a(S'over'
p3077
I3
tp3078
a(S'Ronda'
p3079
I2
tp3080
a(S'RouseyYahoo'
p3081
I1
tp3082
a(S'SportsCelebritiesSports'
p3083
I1
tp3084
a(S'RecreationUltimate'
p3085
I1
tp3086
a(S'Fighting'
p3087
I2
tp3088
a(S'ChampionshipDonald'
p3089
I1
tp3090
a(S'TrumpHolly'
p3091
I1
tp3092
a(S'HolmRonda'
p3093
I1
tp3094
a(S'RouseyLady'
p3095
I1
tp3096
a(S'GagaMore'
p3097
I1
tp3098
a(S'like'
p3099
I39
tp3100
a(S'thisRemoveAriel'
p3101
I1
tp3102
a(S'Winter'
p3103
I2
tp3104
a(S'Slams'
p3105
I1
tp3106
a(S'SlutShamers'
p3107
I1
tp3108
a(S'What'
p3109
I2
tp3110
a(S'Girl'
p3111
I1
tp3112
a(S'Wears'
p3113
I1
tp3114
a(S'Doesn39t'
p3115
I1
tp3116
a(S'Mean'
p3117
I1
tp3118
a(S'She39s'
p3119
I1
tp3120
a(S'Asking'
p3121
I1
tp3122
a(S'ItAriel'
p3123
I1
tp3124
a(S'Winter'
p3125
I2
tp3126
a(S'hitting'
p3127
I1
tp3128
a(S'back'
p3129
I3
tp3130
a(S'slutshamers'
p3131
I1
tp3132
a(S'after'
p3133
I3
tp3134
a(S'receiving'
p3135
I1
tp3136
a(S'negative'
p3137
I1
tp3138
a(S'comments'
p3139
I1
tp3140
a(S'over'
p3141
I3
tp3142
a(S'photo'
p3143
I3
tp3144
a(S'her'
p3145
I5
tp3146
a(S'bandeau'
p3147
I1
tp3148
a(S'bikini'
p3149
I1
tp3150
a(S'her'
p3151
I5
tp3152
a(S'nieces'
p3153
I2
tp3154
a(S'quotWho'
p3155
I1
tp3156
a(S'knew'
p3157
I1
tp3158
a(S'an'
p3159
I6
tp3160
a(S'innocent'
p3161
I1
tp3162
a(S'photo'
p3163
I3
tp3164
a(S'my'
p3165
I3
tp3166
a(S'nieces'
p3167
I2
tp3168
a(S'would'
p3169
I4
tp3170
a(S'turn'
p3171
I2
tp3172
a(S'thisquot'
p3173
I1
tp3174
a(S'Modern'
p3175
I1
tp3176
a(S'Family'
p3177
I1
tp3178
a(S'star'
p3179
I1
tp3180
a(S'captioned'
p3181
I1
tp3182
a(S'photo'
p3183
I3
tp3184
a(S'woman39s'
p3185
I1
tp3186
a(S'leg'
p3187
I1
tp3188
a(S'labeled'
p3189
I1
tp3190
a(S'words'
p3191
I1
tp3192
a(S'like'
p3193
I39
tp3194
a(S'proper\xe2\x80\xa6TV'
p3195
I1
tp3196
a(S'GuideMore'
p3197
I1
tp3198
a(S'like'
p3199
I39
tp3200
a(S'thisRemoveFacebook\xc2\xae'
p3201
I1
tp3202
a(S'Account'
p3203
I1
tp3204
a(S'Sign'
p3205
I7
tp3206
a(S'Up'
p3207
I4
tp3208
a(S'Join'
p3209
I1
tp3210
a(S'Free'
p3211
I1
tp3212
a(S'TodayConnect'
p3213
I1
tp3214
a(S'friends'
p3215
I2
tp3216
a(S'world'
p3217
I2
tp3218
a(S'around'
p3219
I2
tp3220
a(S'you'
p3221
I24
tp3222
a(S'Facebook'
p3223
I1
tp3224
a(S'Sign'
p3225
I7
tp3226
a(S'up'
p3227
I7
tp3228
a(S'it\xe2\x80\x99s'
p3229
I2
tp3230
a(S'free'
p3231
I1
tp3232
a(S'always'
p3233
I1
tp3234
a(S'beFacebookSponsored'
p3235
I1
tp3236
a(S'My'
p3237
I4
tp3238
a(S'Husband'
p3239
I1
tp3240
a(S'Dressed'
p3241
I1
tp3242
a(S'Me'
p3243
I1
tp3244
a(S'For'
p3245
I2
tp3246
a(S'Week'
p3247
I1
tp3248
a(S'It'
p3249
I1
tp3250
a(S'Changed'
p3251
I1
tp3252
a(S'Way'
p3253
I1
tp3254
a(S'I'
p3255
I4
tp3256
a(S'Dress'
p3257
I1
tp3258
a(S'MyselfAs'
p3259
I1
tp3260
a(S'woman'
p3261
I2
tp3262
a(S'admittedly'
p3263
I1
tp3264
a(S'preoccupied'
p3265
I1
tp3266
a(S'fashion'
p3267
I1
tp3268
a(S'long'
p3269
I1
tp3270
a(g3255
I4
tp3271
a(S'can'
p3272
I4
tp3273
a(S'remember'
p3274
I1
tp3275
a(S'surrendering'
p3276
I1
tp3277
a(S'week'
p3278
I1
tp3279
a(S'outfits'
p3280
I1
tp3281
a(S'my'
p3282
I3
tp3283
a(S'husband39s'
p3284
I1
tp3285
a(S'whims'
p3286
I1
tp3287
a(S'styling'
p3288
I1
tp3289
a(S'experiment'
p3290
I1
tp3291
a(S'sounded'
p3292
I1
tp3293
a(S'like'
p3294
I39
tp3295
a(S'torture'
p3296
I1
tp3297
a(S'Let'
p3298
I2
tp3299
a(S'me'
p3300
I2
tp3301
a(S'preface'
p3302
I1
tp3303
a(S'saying'
p3304
I1
tp3305
a(S'my'
p3306
I3
tp3307
a(S'husband'
p3308
I1
tp3309
a(S'Thomas'
p3310
I1
tp3311
a(S'pretty'
p3312
I2
tp3313
a(S'stylish'
p3314
I1
tp3315
a(S'He'
p3316
I1
tp3317
a(S'grew'
p3318
I1
tp3319
a(S'up'
p3320
I7
tp3321
a(S'fashionsavvy'
p3322
I1
tp3323
a(S'mother'
p3324
I1
tp3325
a(S'two\xe2\x80\xa6PopSugarMore'
p3326
I1
tp3327
a(S'like'
p3328
I39
tp3329
a(S'thisRemoveUSled'
p3330
I1
tp3331
a(S'strikes'
p3332
I2
tp3333
a(S'destroy'
p3334
I1
tp3335
a(S'116'
p3336
I3
tp3337
a(S'IS'
p3338
I3
tp3339
a(S'fuel'
p3340
I2
tp3341
a(S'trucks'
p3342
I3
tp3343
a(S'east'
p3344
I1
tp3345
a(S'SyriaStrikes'
p3346
I1
tp3347
a(S'USled'
p3348
I1
tp3349
a(S'air'
p3350
I2
tp3351
a(S'coalition'
p3352
I1
tp3353
a(S'fighting'
p3354
I1
tp3355
a(S'Islamic'
p3356
I3
tp3357
a(S'State'
p3358
I9
tp3359
a(S'group'
p3360
I1
tp3361
a(S'destroyed'
p3362
I2
tp3363
a(S'116'
p3364
I3
tp3365
a(S'fuel'
p3366
I2
tp3367
a(S'trucks'
p3368
I3
tp3369
a(S'used'
p3370
I3
tp3371
a(S'jihadist'
p3372
I1
tp3373
a(S'organisation'
p3374
I1
tp3375
a(S'eastern'
p3376
I1
tp3377
a(S'Syria'
p3378
I4
tp3379
a(S'Pentagon'
p3380
I2
tp3381
a(S'said'
p3382
I5
tp3383
a(S'Monday'
p3384
I4
tp3385
a(S'In'
p3386
I3
tp3387
a(S'statement'
p3388
I1
tp3389
a(S'Pentagon'
p3390
I2
tp3391
a(S'said'
p3392
I5
tp3393
a(S'trucks'
p3394
I3
tp3395
a(S'were'
p3396
I3
tp3397
a(S'destroyed'
p3398
I2
tp3399
a(S'single'
p3400
I1
tp3401
a(S'strike'
p3402
I1
tp3403
a(S'Sunday'
p3404
I1
tp3405
a(S'near'
p3406
I1
tp3407
a(S'Albu'
p3408
I1
tp3409
a(S'Kamal'
p3410
I1
tp3411
a(S'an'
p3412
I6
tp3413
a(S'ISheld'
p3414
I1
tp3415
a(S'town\xe2\x80\xa6AFPPoliticsUnrest'
p3416
I1
tp3417
a(S'Conflicts'
p3418
I3
tp3419
a(S'WarSyriaIraqMore'
p3420
I1
tp3421
a(S'like'
p3422
I39
tp3423
a(S'thisRemove39Sexy'
p3424
I1
tp3425
a(S'bombshell39'
p3426
I1
tp3427
a(S'center'
p3428
I3
tp3429
a(S'new'
p3430
I10
tp3431
a(S'Vatican'
p3432
I1
tp3433
a(S'corruption'
p3434
I1
tp3435
a(S'scandalIn'
p3436
I1
tp3437
a(S'religion'
p3438
I1
tp3439
a(S'where'
p3440
I1
tp3441
a(S'first'
p3442
I1
tp3443
a(S'woman'
p3444
I2
tp3445
a(S'history'
p3446
I1
tp3447
a(S'said'
p3448
I5
tp3449
a(S'have'
p3450
I6
tp3451
a(S'caused'
p3452
I1
tp3453
a(S'all'
p3454
I5
tp3455
a(S'kinds'
p3456
I2
tp3457
a(S'problems'
p3458
I1
tp3459
a(S'Roman'
p3460
I1
tp3461
a(S'Catholic'
p3462
I1
tp3463
a(S'Church'
p3464
I1
tp3465
a(S'should'
p3466
I1
tp3467
a(S'have'
p3468
I6
tp3469
a(S'perhaps'
p3470
I1
tp3471
a(S'been'
p3472
I2
tp3473
a(S'able'
p3474
I1
tp3475
a(S'see'
p3476
I4
tp3477
a(S'what'
p3478
I5
tp3479
a(S'coming'
p3480
I1
tp3481
a(S'Francesca'
p3482
I1
tp3483
a(S'Chaouqui'
p3484
I1
tp3485
a(S'Her'
p3486
I1
tp3487
a(S'hiring'
p3488
I1
tp3489
a(S'2013'
p3490
I2
tp3491
a(S'part'
p3492
I2
tp3493
a(S'COSEA'
p3494
I1
tp3495
a(S'Pope\xe2\x80\x99s'
p3496
I1
tp3497
a(S'Commission'
p3498
I1
tp3499
a(S'Reference'
p3500
I1
tp3501
a(S'the\xe2\x80\xa6New'
p3502
I1
tp3503
a(S'York'
p3504
I1
tp3505
a(S'PostSocietyReligionVatican'
p3506
I1
tp3507
a(S'CityPope'
p3508
I1
tp3509
a(S'FrancisMore'
p3510
I1
tp3511
a(S'like'
p3512
I39
tp3513
a(S'thisRemoveISIS'
p3514
I1
tp3515
a(S'Controlled'
p3516
I1
tp3517
a(S'This'
p3518
I2
tp3519
a(S'Iraqi'
p3520
I1
tp3521
a(S'City'
p3522
I2
tp3523
a(S'Mere'
p3524
I1
tp3525
a(S'Days'
p3526
I1
tp3527
a(S'Ago'
p3528
I1
tp3529
a(S'Here39s'
p3530
I2
tp3531
a(S'A'
p3532
I2
tp3533
a(S'Look'
p3534
I1
tp3535
a(S'InsideSINJAR'
p3536
I1
tp3537
a(S'Iraq'
p3538
I4
tp3539
a(S'Up'
p3540
I4
tp3541
a(S'steep'
p3542
I1
tp3543
a(S'road'
p3544
I1
tp3545
a(S'snakes'
p3546
I1
tp3547
a(S'around'
p3548
I2
tp3549
a(S'northern'
p3550
I1
tp3551
a(S'Iraq39s'
p3552
I1
tp3553
a(S'Mount'
p3554
I1
tp3555
a(S'Sinjar'
p3556
I1
tp3557
a(S'lies'
p3558
I1
tp3559
a(S'ghost'
p3560
I1
tp3561
a(S'cityThe'
p3562
I1
tp3563
a(S'socalled'
p3564
I1
tp3565
a(S'Islamic'
p3566
I3
tp3567
a(S'State'
p3568
I9
tp3569
a(S'\xc2\xa0also'
p3570
I1
tp3571
a(S'known'
p3572
I1
tp3573
a(S'ISIS'
p3574
I4
tp3575
a(S'showed'
p3576
I1
tp3577
a(S'up'
p3578
I7
tp3579
a(S'Sinjar39s'
p3580
I1
tp3581
a(S'doorstep'
p3582
I1
tp3583
a(S'15'
p3584
I3
tp3585
a(S'months'
p3586
I1
tp3587
a(S'ago'
p3588
I2
tp3589
a(S'hellbent'
p3590
I1
tp3591
a(S'killing'
p3592
I1
tp3593
a(S'raping'
p3594
I1
tp3595
a(S'terrorizing'
p3596
I1
tp3597
a(S'members'
p3598
I1
tp3599
a(S'religious'
p3600
I1
tp3601
a(S'minority'
p3602
I1
tp3603
a(S'expanding'
p3604
I1
tp3605
a(S'territory'
p3606
I1
tp3607
a(S'for\xe2\x80\xa6Huffington'
p3608
I1
tp3609
a(S'PostSocietyIraqMore'
p3610
I1
tp3611
a(S'like'
p3612
I39
tp3613
a(S'thisRemoveFuture'
p3614
I1
tp3615
a(S'uncertain'
p3616
I2
tp3617
a(S'rare'
p3618
I1
tp3619
a(S'white'
p3620
I2
tp3621
a(S'deer'
p3622
I2
tp3623
a(S'former'
p3624
I2
tp3625
a(S'weapons'
p3626
I2
tp3627
a(S'siteROMULUS'
p3628
I1
tp3629
a(S'NY'
p3630
I1
tp3631
a(S'AP'
p3632
I1
tp3633
a(S'\xe2\x80\x94'
p3634
I3
tp3635
a(S'Hundreds'
p3636
I1
tp3637
a(S'ghostly'
p3638
I1
tp3639
a(S'white'
p3640
I2
tp3641
a(S'deer'
p3642
I2
tp3643
a(S'roaming'
p3644
I1
tp3645
a(S'among'
p3646
I1
tp3647
a(S'overgrown'
p3648
I1
tp3649
a(S'munitions'
p3650
I1
tp3651
a(S'bunkers'
p3652
I1
tp3653
a(S'sprawling'
p3654
I1
tp3655
a(S'former'
p3656
I2
tp3657
a(S'Army'
p3658
I2
tp3659
a(S'weapons'
p3660
I2
tp3661
a(S'depot'
p3662
I1
tp3663
a(S'face'
p3664
I2
tp3665
a(S'an'
p3666
I6
tp3667
a(S'uncertain'
p3668
I2
tp3669
a(S'future'
p3670
I1
tp3671
a(S'after'
p3672
I3
tp3673
a(S'living'
p3674
I1
tp3675
a(S'breeding'
p3676
I1
tp3677
a(S'largely'
p3678
I1
tp3679
a(S'undisturbed'
p3680
I1
tp3681
a(S'since'
p3682
I2
tp3683
a(S'middle'
p3684
I1
tp3685
a(S'last'
p3686
I2
tp3687
a(S'centuryAssociated'
p3688
I1
tp3689
a(S'PressEnvironmentTourist'
p3690
I1
tp3691
a(S'attractionWhitetailed'
p3692
I1
tp3693
a(S'deerMore'
p3694
I1
tp3695
a(S'like'
p3696
I39
tp3697
a(S'thisRemoveTurkey'
p3698
I1
tp3699
a(S'says'
p3700
I2
tp3701
a(S'notified'
p3702
I2
tp3703
a(S'France'
p3704
I7
tp3705
a(S'twice'
p3706
I2
tp3707
a(S'about'
p3708
I10
tp3709
a(S'Paris'
p3710
I11
tp3711
a(S'attacker'
p3712
I1
tp3713
a(S'senior'
p3714
I2
tp3715
a(S'officialBy'
p3716
I1
tp3717
a(S'Orhan'
p3718
I1
tp3719
a(S'Coskun'
p3720
I1
tp3721
a(S'Humeyra'
p3722
I1
tp3723
a(S'Pamuk'
p3724
I1
tp3725
a(S'BELEK'
p3726
I1
tp3727
a(S'Turkey'
p3728
I3
tp3729
a(S'Reuters'
p3730
I1
tp3731
a(S'Turkey'
p3732
I3
tp3733
a(S'notified'
p3734
I2
tp3735
a(S'France'
p3736
I7
tp3737
a(S'twice'
p3738
I2
tp3739
a(S'December'
p3740
I1
tp3741
a(S'2014'
p3742
I1
tp3743
a(S'June'
p3744
I1
tp3745
a(S'2015'
p3746
I3
tp3747
a(S'about'
p3748
I10
tp3749
a(S'one'
p3750
I2
tp3751
a(S'attackers'
p3752
I1
tp3753
a(S'suicide'
p3754
I3
tp3755
a(S'bombings'
p3756
I1
tp3757
a(S'shootings'
p3758
I1
tp3759
a(S'Paris'
p3760
I11
tp3761
a(S'killed'
p3762
I1
tp3763
a(S'more'
p3764
I25
tp3765
a(S'than'
p3766
I4
tp3767
a(S'130'
p3768
I1
tp3769
a(S'people'
p3770
I2
tp3771
a(S'senior'
p3772
I2
tp3773
a(S'Turkish'
p3774
I1
tp3775
a(S'government'
p3776
I1
tp3777
a(S'official'
p3778
I1
tp3779
a(S'said'
p3780
I5
tp3781
a(S'Monday'
p3782
I4
tp3783
a(S'Turkey'
p3784
I3
tp3785
a(S'only'
p3786
I1
tp3787
a(S'received\xe2\x80\xa6ReutersPoliticsTurkeyOfficialBelekMore'
p3788
I1
tp3789
a(S'like'
p3790
I39
tp3791
a(S'thisRemoveOur'
p3792
I1
tp3793
a(S'terrorism'
p3794
I2
tp3795
a(S'double'
p3796
I2
tp3797
a(S'standard'
p3798
I2
tp3799
a(S'After'
p3800
I2
tp3801
a(S'Paris'
p3802
I11
tp3803
a(S'let\xe2\x80\x99s'
p3804
I2
tp3805
a(S'stop'
p3806
I2
tp3807
a(S'blaming'
p3808
I2
tp3809
a(S'Muslims'
p3810
I2
tp3811
a(S'take'
p3812
I2
tp3813
a(S'hard'
p3814
I2
tp3815
a(S'look'
p3816
I2
tp3817
a(S'ourselves'
p3818
I2
tp3819
a(S'Saloncom'
p3820
I1
tp3821
a(S'Ian'
p3822
I1
tp3823
a(S'KynnersleykpopperFollow'
p3824
I1
tp3825
a(S'Twitter'
p3826
I1
tp3827
a(S'RT'
p3828
I1
tp3829
a(S'Salon'
p3830
I1
tp3831
a(S'Our'
p3832
I1
tp3833
a(S'terrorism'
p3834
I2
tp3835
a(S'double'
p3836
I2
tp3837
a(S'standard'
p3838
I2
tp3839
a(S'After'
p3840
I2
tp3841
a(S'Paris'
p3842
I11
tp3843
a(S'let\xe2\x80\x99s'
p3844
I2
tp3845
a(S'stop'
p3846
I2
tp3847
a(S'blaming'
p3848
I2
tp3849
a(S'Muslims'
p3850
I2
tp3851
a(S'take'
p3852
I2
tp3853
a(S'hard'
p3854
I2
tp3855
a(S'look'
p3856
I2
tp3857
a(S'ourselves'
p3858
I2
tp3859
a(S'slnmusE2xxnaL'
p3860
I1
tp3861
a(S'November'
p3862
I2
tp3863
a(S'15'
p3864
I3
tp3865
a(S'2015'
p3866
I3
tp3867
a(S'More'
p3868
I6
tp3869
a(S'like'
p3870
I39
tp3871
a(S'thisRemoveOdell'
p3872
I1
tp3873
a(S'Beckham'
p3874
I5
tp3875
a(S'had'
p3876
I3
tp3877
a(S'touchdown'
p3878
I2
tp3879
a(S'The'
p3880
I9
tp3881
a(S'NFL\xe2\x80\x99s'
p3882
I1
tp3883
a(S'catch'
p3884
I3
tp3885
a(S'rule'
p3886
I1
tp3887
a(S'cost'
p3888
I1
tp3889
a(S'Giants'
p3890
I3
tp3891
a(S'gameWith'
p3892
I1
tp3893
a(S'Giants'
p3894
I3
tp3895
a(S'trailing'
p3896
I1
tp3897
a(S'Patriots'
p3898
I1
tp3899
a(S'2624'
p3900
I1
tp3901
a(S'Odell'
p3902
I1
tp3903
a(S'Beckham'
p3904
I5
tp3905
a(S'Jr'
p3906
I1
tp3907
a(S'appeared'
p3908
I2
tp3909
a(S'catch'
p3910
I3
tp3911
a(S'goahead'
p3912
I1
tp3913
a(S'touchdown'
p3914
I2
tp3915
a(S'Beckham'
p3916
I5
tp3917
a(S'appears'
p3918
I1
tp3919
a(S'have'
p3920
I6
tp3921
a(S'caught'
p3922
I1
tp3923
a(S'ball'
p3924
I1
tp3925
a(S'touched'
p3926
I1
tp3927
a(S'both'
p3928
I1
tp3929
a(S'feet'
p3930
I1
tp3931
a(S'down'
p3932
I3
tp3933
a(S'while'
p3934
I4
tp3935
a(S'maintaining'
p3936
I1
tp3937
a(S'possession'
p3938
I1
tp3939
a(S'before'
p3940
I2
tp3941
a(S'Malcolm'
p3942
I1
tp3943
a(S'Butler'
p3944
I1
tp3945
a(S'swipes'
p3946
I1
tp3947
a(S'out'
p3948
I6
tp3949
a(S'If'
p3950
I1
tp3951
a(S'Beckham39s'
p3952
I1
tp3953
a(S'TD'
p3954
I1
tp3955
a(S'catch'
p3956
I3
tp3957
a(S'had'
p3958
I3
tp3959
a(S'stood'
p3960
I1
tp3961
a(S'Giants'
p3962
I3
tp3963
a(S'probably'
p3964
I2
tp3965
a(S'would\xe2\x80\xa6SB'
p3966
I1
tp3967
a(S'NationFootballSports'
p3968
I1
tp3969
a(S'RecreationNational'
p3970
I1
tp3971
a(S'Football'
p3972
I2
tp3973
a(S'LeagueOdell'
p3974
I1
tp3975
a(S'Beckham'
p3976
I5
tp3977
a(S'JrMore'
p3978
I1
tp3979
a(S'like'
p3980
I39
tp3981
a(S'thisRemoveThe'
p3982
I2
tp3983
a(S'Broke'
p3984
I1
tp3985
a(S'Girl\xe2\x80\x99s'
p3986
I1
tp3987
a(S'Guide'
p3988
I1
tp3989
a(S'To'
p3990
I2
tp3991
a(g3532
I2
tp3992
a(S'Wardrobe'
p3993
I1
tp3994
a(S'Makeover'
p3995
I1
tp3996
a(S'For'
p3997
I2
tp3998
a(S'FreeIf'
p3999
I1
tp4000
a(S'you'
p4001
I24
tp4002
a(S'anything'
p4003
I1
tp4004
a(S'like'
p4005
I39
tp4006
a(S'us'
p4007
I9
tp4008
a(S'you'
p4009
I24
tp4010
a(S'dream'
p4011
I1
tp4012
a(S'having'
p4013
I1
tp4014
a(S'beautiful'
p4015
I1
tp4016
a(S'big'
p4017
I1
tp4018
a(S'closet'
p4019
I1
tp4020
a(S'bigger'
p4021
I1
tp4022
a(S'bank'
p4023
I1
tp4024
a(S'balance'
p4025
I1
tp4026
a(S'And'
p4027
I1
tp4028
a(S'you'
p4029
I24
tp4030
a(S'exactly'
p4031
I1
tp4032
a(S'like'
p4033
I39
tp4034
a(S'us'
p4035
I9
tp4036
a(S'you'
p4037
I24
tp4038
a(S'also'
p4039
I2
tp4040
a(S'know'
p4041
I3
tp4042
a(S'your'
p4043
I25
tp4044
a(S'superpower'
p4045
I1
tp4046
a(S'being'
p4047
I2
tp4048
a(S'broke'
p4049
I1
tp4050
a(S'most'
p4051
I4
tp4052
a(S'time'
p4053
I2
tp4054
a(S'Don\xe2\x80\x99t'
p4055
I1
tp4056
a(S'fret'
p4057
I1
tp4058
a(S'just'
p4059
I4
tp4060
a(S'yet'
p4061
I1
tp4062
a(S'we'
p4063
I2
tp4064
a(S'have'
p4065
I6
tp4066
a(S'found'
p4067
I1
tp4068
a(S'out'
p4069
I6
tp4070
a(S'some'
p4071
I3
tp4072
a(S'kickass'
p4073
I1
tp4074
a(S'ways'
p4075
I1
tp4076
a(S'increase'
p4077
I5
tp4078
a(S'\xe2\x80\xa6POPXOcomMore'
p4079
I1
tp4080
a(S'like'
p4081
I39
tp4082
a(S'thisRemove'
p4083
I2
tp4084
a(S'Play'
p4085
I2
tp4086
a(S'VideoPolice'
p4087
I1
tp4088
a(S'Babies'
p4089
I1
tp4090
a(S'had'
p4091
I3
tp4092
a(S'autopsies'
p4093
I1
tp4094
a(S'done'
p4095
I1
tp4096
a(S'before'
p4097
I2
tp4098
a(S'being'
p4099
I2
tp4100
a(S'foundPolice'
p4101
I1
tp4102
a(S'say'
p4103
I1
tp4104
a(S'bodies'
p4105
I1
tp4106
a(S'two'
p4107
I5
tp4108
a(S'babies'
p4109
I1
tp4110
a(S'were'
p4111
I3
tp4112
a(S'discovered'
p4113
I1
tp4114
a(S'boy'
p4115
I1
tp4116
a(S'girl'
p4117
I1
tp4118
a(S'playing'
p4119
I1
tp4120
a(S'field'
p4121
I1
tp4122
a(S'Kensington'
p4123
I1
tp4124
a(S'section'
p4125
I1
tp4126
a(S'PhiladelphiaWABC'
p4127
I1
tp4128
a(S'\xe2\x80\x93'
p4129
I1
tp4130
a(S'NYSocietyMore'
p4131
I1
tp4132
a(S'like'
p4133
I39
tp4134
a(S'thisRemoveThe'
p4135
I2
tp4136
a(S'Walking'
p4137
I3
tp4138
a(S'Dead'
p4139
I3
tp4140
a(S'season'
p4141
I2
tp4142
a(S'6'
p4143
I2
tp4144
a(S'episode'
p4145
I1
tp4146
a(S'6'
p4147
I2
tp4148
a(S'Why'
p4149
I1
tp4150
a(S'Daryl'
p4151
I2
tp4152
a(S'show39s'
p4153
I1
tp4154
a(S'most'
p4155
I4
tp4156
a(S'popular'
p4157
I2
tp4158
a(S'characterIf'
p4159
I1
tp4160
a(S'The'
p4161
I9
tp4162
a(S'Walking'
p4163
I3
tp4164
a(S'Dead'
p4165
I3
tp4166
a(S'has'
p4167
I4
tp4168
a(S'breakout'
p4169
I1
tp4170
a(S'character'
p4171
I2
tp4172
a(S'\xe2\x80\x94'
p4173
I3
tp4174
a(S'which'
p4175
I2
tp4176
a(g3255
I4
tp4177
a(S'mean'
p4178
I1
tp4179
a(S'character'
p4180
I2
tp4181
a(S'who39s'
p4182
I1
tp4183
a(S'become'
p4184
I1
tp4185
a(S'so'
p4186
I3
tp4187
a(S'popular'
p4188
I2
tp4189
a(S'viewers'
p4190
I1
tp4191
a(S'rose'
p4192
I1
tp4193
a(S'up'
p4194
I7
tp4195
a(S'from'
p4196
I3
tp4197
a(S'minor'
p4198
I1
tp4199
a(S'role'
p4200
I1
tp4201
a(S'much'
p4202
I2
tp4203
a(S'much'
p4204
I2
tp4205
a(S'more'
p4206
I25
tp4207
a(S'important'
p4208
I3
tp4209
a(S'one'
p4210
I2
tp4211
a(S'\xe2\x80\x94'
p4212
I3
tp4213
a(S'it39s'
p4214
I1
tp4215
a(S'probably'
p4216
I2
tp4217
a(S'Daryl'
p4218
I2
tp4219
a(S'Dixon'
p4220
I1
tp4221
a(S'played'
p4222
I1
tp4223
a(S'effortlessly'
p4224
I1
tp4225
a(S'charismatic'
p4226
I1
tp4227
a(S'Norman'
p4228
I1
tp4229
a(S'Reedus'
p4230
I2
tp4231
a(S'Reedus'
p4232
I2
tp4233
a(S'does'
p4234
I1
tp4235
a(S'great'
p4236
I2
tp4237
a(S'job'
p4238
I1
tp4239
a(S'with\xe2\x80\xa6Voxcom45'
p4240
I1
tp4241
a(S'mins'
p4242
I2
tp4243
a(S'agoMediaDaryl'
p4244
I1
tp4245
a(S'DixonMore'
p4246
I1
tp4247
a(S'like'
p4248
I39
tp4249
a(S'thisRemoveIslamic'
p4250
I1
tp4251
a(S'State'
p4252
I9
tp4253
a(S'threatens'
p4254
I1
tp4255
a(S'attack'
p4256
I2
tp4257
a(S'Washington'
p4258
I2
tp4259
a(S'other'
p4260
I1
tp4261
a(S'countriesIslamic'
p4262
I1
tp4263
a(S'State'
p4264
I9
tp4265
a(S'warned'
p4266
I1
tp4267
a(S'new'
p4268
I10
tp4269
a(S'video'
p4270
I2
tp4271
a(S'Monday'
p4272
I4
tp4273
a(S'countries'
p4274
I1
tp4275
a(S'taking'
p4276
I1
tp4277
a(S'part'
p4278
I2
tp4279
a(S'air'
p4280
I2
tp4281
a(S'strikes'
p4282
I2
tp4283
a(S'against'
p4284
I2
tp4285
a(S'Syria'
p4286
I4
tp4287
a(S'would'
p4288
I4
tp4289
a(S'suffer'
p4290
I1
tp4291
a(S'same'
p4292
I1
tp4293
a(S'fate'
p4294
I1
tp4295
a(S'France'
p4296
I7
tp4297
a(S'threatened'
p4298
I1
tp4299
a(S'attack'
p4300
I2
tp4301
a(S'Washington'
p4302
I2
tp4303
a(S'The'
p4304
I9
tp4305
a(S'video'
p4306
I2
tp4307
a(S'which'
p4308
I2
tp4309
a(S'appeared'
p4310
I2
tp4311
a(S'site'
p4312
I1
tp4313
a(S'used'
p4314
I3
tp4315
a(S'Islamic'
p4316
I3
tp4317
a(S'State'
p4318
I9
tp4319
a(S'post'
p4320
I2
tp4321
a(S'its'
p4322
I1
tp4323
a(S'messages'
p4324
I1
tp4325
a(S'begins'
p4326
I1
tp4327
a(S'news'
p4328
I3
tp4329
a(S'footage'
p4330
I1
tp4331
a(S'the\xe2\x80\xa6Reuters55'
p4332
I1
tp4333
a(S'mins'
p4334
I2
tp4335
a(S'agoPoliticsSocietySyriaIslamic'
p4336
I1
tp4337
a(S'State'
p4338
I9
tp4339
a(S'Iraq'
p4340
I4
tp4341
a(S'LevantMore'
p4342
I2
tp4343
a(S'like'
p4344
I39
tp4345
a(S'thisRemoveA'
p4346
I1
tp4347
a(S'Grand'
p4348
I1
tp4349
a(S'Bargain'
p4350
I1
tp4351
a(S'With'
p4352
I2
tp4353
a(S'Putin'
p4354
I2
tp4355
a(S'Against'
p4356
I1
tp4357
a(S'ISISWhat'
p4358
I1
tp4359
a(S'follows'
p4360
I1
tp4361
a(S'very'
p4362
I1
tp4363
a(S'pretty'
p4364
I2
tp4365
a(S'But'
p4366
I2
tp4367
a(S'may'
p4368
I1
tp4369
a(S'best'
p4370
I2
tp4371
a(S'option'
p4372
I1
tp4373
a(S'available'
p4374
I2
tp4375
a(S'crisis'
p4376
I1
tp4377
a(S'without'
p4378
I1
tp4379
a(S'good'
p4380
I2
tp4381
a(S'optionsRussian'
p4382
I1
tp4383
a(S'President'
p4384
I1
tp4385
a(S'Vladimir'
p4386
I1
tp4387
a(S'Putin'
p4388
I2
tp4389
a(S'has'
p4390
I4
tp4391
a(S'made'
p4392
I1
tp4393
a(S'secret'
p4394
I2
tp4395
a(S'fact'
p4396
I1
tp4397
a(S'he'
p4398
I3
tp4399
a(S'would'
p4400
I4
tp4401
a(S'like'
p4402
I39
tp4403
a(S'some'
p4404
I3
tp4405
a(S'kind'
p4406
I1
tp4407
a(S'political'
p4408
I1
tp4409
a(S'settlement'
p4410
I1
tp4411
a(S'West'
p4412
I1
tp4413
a(S'The'
p4414
I9
tp4415
a(S'German'
p4416
I1
tp4417
a(S'magazine'
p4418
I1
tp4419
a(S'Der'
p4420
I1
tp4421
a(S'Spiegel'
p4422
I1
tp4423
a(S'has'
p4424
I4
tp4425
a(S'just'
p4426
I4
tp4427
a(S'published'
p4428
I1
tp4429
a(S'leaked\xe2\x80\xa6Huffington'
p4430
I1
tp4431
a(S'PostVladimir'
p4432
I1
tp4433
a(S'PutinMore'
p4434
I1
tp4435
a(S'like'
p4436
I39
tp4437
a(S'thisRemove'
p4438
I2
tp4439
a(S'View12'
p4440
I1
tp4441
a(S'Laundry'
p4442
I1
tp4443
a(S'Hacks'
p4444
I1
tp4445
a(S'You\xe2\x80\x99ve'
p4446
I1
tp4447
a(S'Never'
p4448
I1
tp4449
a(S'Heard'
p4450
I1
tp4451
a(S'Before'
p4452
I1
tp4453
a(S'19'
p4454
I7
tp4455
a(S'photosB'
p4456
I1
tp4457
a(S'y'
p4458
I6
tp4459
a(S'Allyson'
p4460
I1
tp4461
a(S'Payer'
p4462
I1
tp4463
a(S'Let\xe2\x80\x99s'
p4464
I1
tp4465
a(S'face'
p4466
I2
tp4467
a(S'it\xe2\x80\x94laundry'
p4468
I1
tp4469
a(S'chore'
p4470
I1
tp4471
a(S'But'
p4472
I2
tp4473
a(S'it\xe2\x80\x99s'
p4474
I2
tp4475
a(S'also'
p4476
I2
tp4477
a(S'key'
p4478
I2
tp4479
a(S'extending'
p4480
I1
tp4481
a(S'lifespan'
p4482
I1
tp4483
a(S'your'
p4484
I25
tp4485
a(S'wardrobe'
p4486
I1
tp4487
a(S'We'
p4488
I1
tp4489
a(S'all'
p4490
I5
tp4491
a(S'know'
p4492
I3
tp4493
a(S'wash'
p4494
I1
tp4495
a(S'our'
p4496
I2
tp4497
a(S'darks'
p4498
I1
tp4499
a(S'cold'
p4500
I1
tp4501
a(S'water'
p4502
I1
tp4503
a(S'turn'
p4504
I2
tp4505
a(S'clothes'
p4506
I1
tp4507
a(S'inside'
p4508
I1
tp4509
a(S'out'
p4510
I6
tp4511
a(S'do'
p4512
I3
tp4513
a(S'you'
p4514
I24
tp4515
a(S'know'
p4516
I3
tp4517
a(S'how'
p4518
I1
tp4519
a(S'hand'
p4520
I1
tp4521
a(S'sanitizer'
p4522
I1
tp4523
a(S'can'
p4524
I4
tp4525
a(S'prevent'
p4526
I1
tp4527
a(S'neardisaster'
p4528
I1
tp4529
a(S'what'
p4530
I5
tp4531
a(S'aspirin'
p4532
I1
tp4533
a(S'can'
p4534
I4
tp4535
a(S'do'
p4536
I3
tp4537
a(S'your'
p4538
I25
tp4539
a(S'laundry\xe2\x80\xa6Who'
p4540
I1
tp4541
a(S'What'
p4542
I2
tp4543
a(S'Wear'
p4544
I1
tp4545
a(S'YahooClothes'
p4546
I1
tp4547
a(S'ApparelMore'
p4548
I1
tp4549
a(S'like'
p4550
I39
tp4551
a(S'thisRemoveTerrorists'
p4552
I1
tp4553
a(S'May'
p4554
I1
tp4555
a(S'Have'
p4556
I1
tp4557
a(S'Used'
p4558
I1
tp4559
a(S'PlayStation'
p4560
I1
tp4561
a(S'4s'
p4562
I1
tp4563
a(S'Plan'
p4564
I1
tp4565
a(S'ISIS'
p4566
I4
tp4567
a(S'Paris'
p4568
I11
tp4569
a(S'Attacks'
p4570
I1
tp4571
a(S'Here39s'
p4572
I2
tp4573
a(S'HowThe'
p4574
I1
tp4575
a(S'game'
p4576
I1
tp4577
a(S'consoles'
p4578
I1
tp4579
a(S'would'
p4580
I4
tp4581
a(S'have'
p4582
I6
tp4583
a(S'allowed'
p4584
I1
tp4585
a(S'attack39s'
p4586
I1
tp4587
a(S'perpetrators'
p4588
I1
tp4589
a(S'communicate'
p4590
I2
tp4591
a(S'away'
p4592
I1
tp4593
a(S'from'
p4594
I3
tp4595
a(S'intelligence'
p4596
I1
tp4597
a(S'officials39'
p4598
I1
tp4599
a(S'ears'
p4600
I1
tp4601
a(S'eyesMicGame'
p4602
I1
tp4603
a(S'ConsolesAct'
p4604
I1
tp4605
a(S'Of'
p4606
I4
tp4607
a(S'TerrorPlayStation'
p4608
I1
tp4609
a(S'NetworkPlayStation'
p4610
I1
tp4611
a(S'4More'
p4612
I1
tp4613
a(S'like'
p4614
I39
tp4615
a(S'thisRemoveSimon'
p4616
I1
tp4617
a(S'Cowell'
p4618
I2
tp4619
a(S'39Isn39t'
p4620
I1
tp4621
a(S'Proud39'
p4622
I1
tp4623
a(S'Of'
p4624
I4
tp4625
a(S'Lauren'
p4626
I2
tp4627
a(S'Silverman'
p4628
I2
tp4629
a(S'AffairWe'
p4630
I1
tp4631
a(S'were'
p4632
I3
tp4633
a(S'all'
p4634
I5
tp4635
a(S'left'
p4636
I3
tp4637
a(S'stunned'
p4638
I1
tp4639
a(S'back'
p4640
I3
tp4641
a(S'summer'
p4642
I1
tp4643
a(S'2013'
p4644
I2
tp4645
a(S'when'
p4646
I1
tp4647
a(S'revealed'
p4648
I1
tp4649
a(S'Simon'
p4650
I1
tp4651
a(S'Cowell'
p4652
I2
tp4653
a(S'expecting'
p4654
I1
tp4655
a(S'baby'
p4656
I1
tp4657
a(S'his'
p4658
I2
tp4659
a(S'friend\xe2\x80\x99s'
p4660
I1
tp4661
a(S'wife'
p4662
I1
tp4663
a(S'Lauren'
p4664
I2
tp4665
a(S'Silverman'
p4666
I2
tp4667
a(S'following'
p4668
I2
tp4669
a(S'secret'
p4670
I2
tp4671
a(S'affairStephanie'
p4672
I1
tp4673
a(S'SoteriouCelebritiesSimon'
p4674
I1
tp4675
a(S'CowellMore'
p4676
I1
tp4677
a(S'like'
p4678
I39
tp4679
a(S'thisRemoveLoad'
p4680
I1
tp4681
a(S'more'
p4682
I25
tp4683
a(S'stories'
p4684
I6
tp4685
a(S'positions'
p4686
I2
tp4687
a(S'html'
p4688
I4
tp4689
a(S'n'
p4690
I128
tp4691
a(S'id'
p4692
I5
tp4693
a(S'MAST'
p4694
I1
tp4695
a(S'meta'
p4696
I4
tp4697
a(S'y'
p4698
I6
tp4699
a(S'cscHTML'
p4700
I3
tp4701
a(S'cscURI'
p4702
I3
tp4703
a(S'impID'
p4704
I3
tp4705
a(S'suppugc'
p4706
I3
tp4707
a(S'placementID'
p4708
I3
tp4709
a(S'1'
p4710
I42
tp4711
a(S'creativeID'
p4712
I3
tp4713
a(S'1'
p4714
I42
tp4715
a(S'serveTime'
p4716
I3
tp4717
a(S'1'
p4718
I42
tp4719
a(S'behavior'
p4720
I4
tp4721
a(S'nonexp'
p4722
I3
tp4723
a(S'adID'
p4724
I3
tp4725
a(S'19'
p4726
I7
tp4727
a(S'matchID'
p4728
I3
tp4729
a(S'19'
p4730
I7
tp4731
a(S'err'
p4732
I3
tp4733
a(S'robot'
p4734
I3
tp4735
a(S'hasExternal'
p4736
I3
tp4737
a(S'0'
p4738
I54
tp4739
a(S'size'
p4740
I3
tp4741
a(S'bookID'
p4742
I3
tp4743
a(S'serveType'
p4744
I3
tp4745
a(S'slotID'
p4746
I3
tp4747
a(S'fdb'
p4748
I3
tp4749
a(S'fdburl'
p4750
I3
tp4751
a(S'httpbeapbcyahoocomafbv100bs15ir45r6bgidjmTVQDk4LjHHbFsHU5jMkgKkMTAuNwAAAACljpkKst1402537233026922srv1si13303551adv25941429036ct25li3239250051exp1402544433026922cr4154984551pbid25372728133v10altypetypecmntcmntsubosubor10'
p4752
I3
tp4753
a(S'fdbon'
p4754
I3
tp4755
a(S'1'
p4756
I42
tp4757
a(S'fdbexp'
p4758
I3
tp4759
a(S'1402544433026'
p4760
I3
tp4761
a(S'fdbintl'
p4762
I3
tp4763
a(S'enus'
p4764
I3
tp4765
a(S'd'
p4766
I3
tp4767
a(S'1'
p4768
I42
tp4769
a(S'slotData'
p4770
I3
tp4771
a(S'adc'
p4772
I3
tp4773
a(S'labelAdChoicesurlhttpsinfoyahoocomprivacyusyahoorelevantadshtmlcloseClosecloseAdClose'
p4774
I3
tp4775
a(S'AdshowAdShow'
p4776
I3
tp4777
a(S'adcollapseCollapsefdbI'
p4778
I3
tp4779
a(S'dont'
p4780
I8
tp4781
a(S'like'
p4782
I39
tp4783
a(S'adcodeenus'
p4784
I3
tp4785
a(S'is3rd'
p4786
I3
tp4787
a(S'1'
p4788
I42
tp4789
a(S'html'
p4790
I4
tp4791
a(S'n'
p4792
I128
tp4793
a(S'id'
p4794
I5
tp4795
a(S'LREC'
p4796
I2
tp4797
a(S'meta'
p4798
I4
tp4799
a(S'y'
p4800
I6
tp4801
a(S'cscHTML'
p4802
I3
tp4803
a(S'cscURI'
p4804
I3
tp4805
a(S'impID'
p4806
I3
tp4807
a(S'suppugc'
p4808
I3
tp4809
a(S'placementID'
p4810
I3
tp4811
a(S'1'
p4812
I42
tp4813
a(S'creativeID'
p4814
I3
tp4815
a(S'1'
p4816
I42
tp4817
a(S'serveTime'
p4818
I3
tp4819
a(S'1'
p4820
I42
tp4821
a(S'behavior'
p4822
I4
tp4823
a(S'nonexp'
p4824
I3
tp4825
a(S'adID'
p4826
I3
tp4827
a(S'19'
p4828
I7
tp4829
a(S'matchID'
p4830
I3
tp4831
a(S'19'
p4832
I7
tp4833
a(S'err'
p4834
I3
tp4835
a(S'robot'
p4836
I3
tp4837
a(S'hasExternal'
p4838
I3
tp4839
a(S'0'
p4840
I54
tp4841
a(S'size'
p4842
I3
tp4843
a(S'bookID'
p4844
I3
tp4845
a(S'serveType'
p4846
I3
tp4847
a(S'slotID'
p4848
I3
tp4849
a(S'fdb'
p4850
I3
tp4851
a(S'fdburl'
p4852
I3
tp4853
a(S'httpbeapbcyahoocomafbv100bs15ir45r6bgidjmTVQDk4LjHHbFsHU5jMkgKkMTAuNwAAAACljpkKst1402537233026922srv1si13303551adv25941429036ct25li3239250051exp1402544433026922cr4154984551pbid25372728133v10altypetypecmntcmntsubosubor10'
p4854
I3
tp4855
a(S'fdbon'
p4856
I3
tp4857
a(S'1'
p4858
I42
tp4859
a(S'fdbexp'
p4860
I3
tp4861
a(S'1402544433026'
p4862
I3
tp4863
a(S'fdbintl'
p4864
I3
tp4865
a(S'enus'
p4866
I3
tp4867
a(S'd'
p4868
I3
tp4869
a(S'1'
p4870
I42
tp4871
a(S'slotData'
p4872
I3
tp4873
a(S'adc'
p4874
I3
tp4875
a(S'labelAdChoicesurlhttpsinfoyahoocomprivacyusyahoorelevantadshtmlcloseClosecloseAdClose'
p4876
I3
tp4877
a(S'AdshowAdShow'
p4878
I3
tp4879
a(S'adcollapseCollapsefdbI'
p4880
I3
tp4881
a(S'dont'
p4882
I8
tp4883
a(S'like'
p4884
I39
tp4885
a(S'adcodeenus'
p4886
I3
tp4887
a(S'is3rd'
p4888
I3
tp4889
a(S'1'
p4890
I42
tp4891
a(S'html'
p4892
I4
tp4893
a(S'n'
p4894
I128
tp4895
a(S'id'
p4896
I5
tp4897
a(S'TL1'
p4898
I1
tp4899
a(S'meta'
p4900
I4
tp4901
a(S'y'
p4902
I6
tp4903
a(S'cscHTML'
p4904
I3
tp4905
a(S'cscURI'
p4906
I3
tp4907
a(S'impID'
p4908
I3
tp4909
a(S'suppugc'
p4910
I3
tp4911
a(S'placementID'
p4912
I3
tp4913
a(S'1'
p4914
I42
tp4915
a(S'creativeID'
p4916
I3
tp4917
a(S'1'
p4918
I42
tp4919
a(S'serveTime'
p4920
I3
tp4921
a(S'1'
p4922
I42
tp4923
a(S'behavior'
p4924
I4
tp4925
a(S'nonexp'
p4926
I3
tp4927
a(S'adID'
p4928
I3
tp4929
a(S'19'
p4930
I7
tp4931
a(S'matchID'
p4932
I3
tp4933
a(S'19'
p4934
I7
tp4935
a(S'err'
p4936
I3
tp4937
a(S'robot'
p4938
I3
tp4939
a(S'hasExternal'
p4940
I3
tp4941
a(S'0'
p4942
I54
tp4943
a(S'size'
p4944
I3
tp4945
a(S'bookID'
p4946
I3
tp4947
a(S'serveType'
p4948
I3
tp4949
a(S'slotID'
p4950
I3
tp4951
a(S'fdb'
p4952
I3
tp4953
a(S'fdburl'
p4954
I3
tp4955
a(S'httpbeapbcyahoocomafbv100bs15ir45r6bgidjmTVQDk4LjHHbFsHU5jMkgKkMTAuNwAAAACljpkKst1402537233026922srv1si13303551adv25941429036ct25li3239250051exp1402544433026922cr4154984551pbid25372728133v10altypetypecmntcmntsubosubor10'
p4956
I3
tp4957
a(S'fdbon'
p4958
I3
tp4959
a(S'1'
p4960
I42
tp4961
a(S'fdbexp'
p4962
I3
tp4963
a(S'1402544433026'
p4964
I3
tp4965
a(S'fdbintl'
p4966
I3
tp4967
a(S'enus'
p4968
I3
tp4969
a(S'd'
p4970
I3
tp4971
a(S'1'
p4972
I42
tp4973
a(S'slotData'
p4974
I3
tp4975
a(S'adc'
p4976
I3
tp4977
a(S'labelAdChoicesurlhttpsinfoyahoocomprivacyusyahoorelevantadshtmlcloseClosecloseAdClose'
p4978
I3
tp4979
a(S'AdshowAdShow'
p4980
I3
tp4981
a(S'adcollapseCollapsefdbI'
p4982
I3
tp4983
a(S'dont'
p4984
I8
tp4985
a(S'like'
p4986
I39
tp4987
a(S'adcodeenus'
p4988
I3
tp4989
a(S'is3rd'
p4990
I3
tp4991
a(S'1'
p4992
I42
tp4993
a(S'meta'
p4994
I4
tp4995
a(S'y'
p4996
I6
tp4997
a(S'pageEndHTML'
p4998
I1
tp4999
a(S'poslist'
p5000
I1
tp5001
a(S'MASTFPADLRECHDLN2TL1'
p5002
I1
tp5003
a(S'filtered'
p5004
I1
tp5005
a(S'FPADHDLN2'
p5006
I1
tp5007
a(S'spaceID'
p5008
I1
tp5009
a(S'2023538075'
p5010
I5
tp5011
a(S'host'
p5012
I1
tp5013
a(S'wwwyahoocom'
p5014
I2
tp5015
a(S'lookupTime'
p5016
I1
tp5017
a(S'105'
p5018
I1
tp5019
a(S'k2uri'
p5020
I1
tp5021
a(S'facrt'
p5022
I1
tp5023
a(S'1'
p5024
I42
tp5025
a(S'serveTime1'
p5026
I1
tp5027
a(S'pvid'
p5028
I1
tp5029
a(S'FkuD3Dk4LjGPxRHvLJ9dbgdMMjAzLlZJ4scAAAAA'
p5030
I1
tp5031
a(S'tID'
p5032
I1
tp5033
a(S'darlaprefetch144768275922310146327321'
p5034
I1
tp5035
a(S'npv'
p5036
I1
tp5037
a(S'0'
p5038
I54
tp5039
a(S'ep'
p5040
I1
tp5041
a(S'siteattributefdn1'
p5042
I1
tp5043
a(S'YBUCKET901securetruelangenUSrefhttpswwwyahoocomfilternoexpandabledarlaIDdarlainstance14476827592233408209820'
p5044
I1
tp5045
a(S'pe'
p5046
I1
tp5047
a(S'pym'
p5048
I1
tp5049
a(S'var'
p5050
I30
tp5051
a(S'pageloadValidAds'
p5052
I1
tp5053
a(S'var'
p5054
I30
tp5055
a(S'bucketSAEnabled'
p5056
I1
tp5057
a(S'true'
p5058
I11
tp5059
a(S'var'
p5060
I30
tp5061
a(S'D'
p5062
I2
tp5063
a(S'windowDARLA'
p5064
I1
tp5065
a(S'adLT'
p5066
I1
tp5067
a(S'D'
p5068
I2
tp5069
a(S'DARLACONF'
p5070
I1
tp5071
a(S'useYAC0usePE0servicePathhttpswwwyahoocomsdarlaphpfcphpxservicePathbeaconPathhttpswwwyahoocomsdarlaphpbphprenderPathallowFiFfalsesrenderPathhttpssyimgcomrqdarla291htmlrsfhtmlrenderFilehttpssyimgcomrqdarla291htmlrsfhtmlsfbrenderPathhttpssyimgcomrqdarla291htmlrsfhtmlmsgPathhttpswwwyahoocomsdarla291htmlmsghtmlcscPathhttpssyimgcomrqdarla291htmlrcschtmlrootsdarlaedgeRoothttplyimgcomrqdarla291sedgeRoothttpssyimgcomrqdarla291version291tpbURIhostFilehttpssyimgcomrqdarla291jsgrminjsbeaconsDisabledtruerotationTimingDisabledtruefdblocaleWhat'
p5072
I1
tp5073
a(S'dont'
p5074
I8
tp5075
a(S'you'
p5076
I24
tp5077
a(S'like'
p5078
I39
tp5079
a(S'about'
p5080
I10
tp5081
a(S'adIts'
p5082
I1
tp5083
a(S'offensiveSomething'
p5084
I1
tp5085
a(S'elseThank'
p5086
I1
tp5087
a(S'you'
p5088
I24
tp5089
a(S'helping'
p5090
I1
tp5091
a(S'us'
p5092
I9
tp5093
a(S'improve'
p5094
I1
tp5095
a(S'your'
p5096
I25
tp5097
a(S'Yahoo'
p5098
I26
tp5099
a(S'experienceIts'
p5100
I1
tp5101
a(S'relevantIts'
p5102
I1
tp5103
a(S'distractingI'
p5104
I1
tp5105
a(S'dont'
p5106
I8
tp5107
a(S'like'
p5108
I39
tp5109
a(S'adSendDoneWhy'
p5110
I1
tp5111
a(S'do'
p5112
I3
tp5113
a(g3255
I4
tp5114
a(S'see'
p5115
I4
tp5116
a(S'adsLearn'
p5117
I1
tp5118
a(S'more'
p5119
I25
tp5120
a(S'about'
p5121
I10
tp5122
a(S'your'
p5123
I25
tp5124
a(S'feedbackpositionsDEFAULTsupportsfalseMASTFPADLRECHDLN2TL1langenUS'
p5125
I1
tp5126
a(S'DARLACONFk2E2ERate'
p5127
I1
tp5128
a(S'2'
p5129
I6
tp5130
a(S'DARLACONFpositions'
p5131
I1
tp5132
a(S'MASTposMASTidMASTcleanfpadsMASTdestfpadsMASTiframew970h250frexpIfrexprmxp0metaSizetruesupportsexpovr1exppush1resizeto1closeBtnmode2useShow1LRECposLRECidLRECcleanfpadsLRECdestfpadsLRECiframew300h250fdbtruemetaSizetruesupportsexpovr0exppush0TL1posTL1idTL1cleanfpadsTL1destfpadsTL1iframew120h170frexpIfrexprmxp0cssadtl2b'
p5133
I1
tp5134
a(S'overflowhidden'
p5135
I1
tp5136
a(S'textalignleft'
p5137
I2
tp5138
a(S'p'
p5139
I1
tp5140
a(S'margin0px'
p5141
I1
tp5142
a(S'yfppgcontrols'
p5143
I1
tp5144
a(S'margintop5px'
p5145
I1
tp5146
a(S'marginbottom5px'
p5147
I2
tp5148
a(S'tl1slug'
p5149
I1
tp5150
a(S'fontfamilyHelvetica'
p5151
I2
tp5152
a(S'NeueHelveticaArialsansserif'
p5153
I2
tp5154
a(S'fontsize11px'
p5155
I3
tp5156
a(S'color999'
p5157
I1
tp5158
a(S'fcalign'
p5159
I1
tp5160
a(S'fontfamilyHelvetica'
p5161
I2
tp5162
a(S'NeueHelveticaArialsansserif'
p5163
I2
tp5164
a(S'fontsize11px'
p5165
I3
tp5166
a(S'alink'
p5167
I1
tp5168
a(S'textdecorationnone'
p5169
I1
tp5170
a(S'DARLACONFonStartPosRender'
p5171
I1
tp5172
a(S'functionposItem'
p5173
I1
tp5174
a(S'windowperformance'
p5175
I2
tp5176
a(S'windowperformancenow'
p5177
I4
tp5178
a(S'var'
p5179
I30
tp5180
a(S'ltime'
p5181
I3
tp5182
a(S'windowperformancenow'
p5183
I4
tp5184
a(S'posId'
p5185
I2
tp5186
a(S'posItem'
p5187
I3
tp5188
a(S'posItempos'
p5189
I1
tp5190
a(S'adLTpushADSTARTposId'
p5191
I1
tp5192
a(S'Mathroundltime'
p5193
I2
tp5194
a(S'DARLACONFonBeforePosMsg'
p5195
I1
tp5196
a(S'functionmsgname'
p5197
I1
tp5198
a(S'position'
p5199
I4
tp5200
a(S'Make'
p5201
I5
tp5202
a(S'configurable'
p5203
I2
tp5204
a(S'INTLS'
p5205
I1
tp5206
a(S'var'
p5207
I30
tp5208
a(S'maxWidth'
p5209
I2
tp5210
a(S'970'
p5211
I1
tp5212
a(S'maxHeight'
p5213
I2
tp5214
a(S'600'
p5215
I1
tp5216
a(S'newWidth'
p5217
I3
tp5218
a(S'newHeight'
p5219
I4
tp5220
a(S'origWidth'
p5221
I3
tp5222
a(S'origHeight'
p5223
I3
tp5224
a(S'pos'
p5225
I2
tp5226
a(S'ifMAST'
p5227
I1
tp5228
a(S'position'
p5229
I4
tp5230
a(S'return'
p5231
I5
tp5232
a(S'msgname'
p5233
I3
tp5234
a(S'resizeto'
p5235
I1
tp5236
a(S'newWidth'
p5237
I3
tp5238
a(S'arguments2'
p5239
I1
tp5240
a(S'newHeight'
p5241
I4
tp5242
a(S'arguments3'
p5243
I1
tp5244
a(S'else'
p5245
I17
tp5246
a(S'msgname'
p5247
I3
tp5248
a(S'exppush'
p5249
I2
tp5250
a(S'msgname'
p5251
I3
tp5252
a(S'expovr'
p5253
I2
tp5254
a(S'pos'
p5255
I2
tp5256
a(S'sfhostgetMAST'
p5257
I1
tp5258
a(S'origWidth'
p5259
I3
tp5260
a(S'posconfw'
p5261
I1
tp5262
a(S'origHeight'
p5263
I3
tp5264
a(S'posconfh'
p5265
I1
tp5266
a(S'expovr'
p5267
I2
tp5268
a(S'exppush'
p5269
I2
tp5270
a(S'position'
p5271
I4
tp5272
a(S'id'
p5273
I5
tp5274
a(S'delta'
p5275
I2
tp5276
a(S'X'
p5277
I1
tp5278
a(S'delta'
p5279
I2
tp5280
a(S'Y'
p5281
I2
tp5282
a(S'push'
p5283
I1
tp5284
a(S'true'
p5285
I11
tp5286
a(S'false'
p5287
I4
tp5288
a(S'top'
p5289
I2
tp5290
a(S'increase'
p5291
I5
tp5292
a(S'left'
p5293
I3
tp5294
a(S'increase'
p5295
I5
tp5296
a(S'right'
p5297
I3
tp5298
a(S'increase'
p5299
I5
tp5300
a(S'bottom'
p5301
I1
tp5302
a(S'increase'
p5303
I5
tp5304
a(S'newWidth'
p5305
I3
tp5306
a(S'origWidth'
p5307
I3
tp5308
a(S'arguments6'
p5309
I1
tp5310
a(S'arguments7'
p5311
I1
tp5312
a(S'newHeight'
p5313
I4
tp5314
a(S'origHeight'
p5315
I3
tp5316
a(S'arguments5'
p5317
I1
tp5318
a(S'arguments8'
p5319
I1
tp5320
a(S'ifnewWidth'
p5321
I1
tp5322
a(S'maxWidth'
p5323
I2
tp5324
a(S'newHeight'
p5325
I4
tp5326
a(S'maxHeight'
p5327
I2
tp5328
a(S'return'
p5329
I5
tp5330
a(S'true'
p5331
I11
tp5332
a(S'DARLACONFonFinishPosRender'
p5333
I1
tp5334
a(S'functionposId'
p5335
I1
tp5336
a(S'reqList'
p5337
I1
tp5338
a(S'posItem'
p5339
I3
tp5340
a(S'var'
p5341
I30
tp5342
a(S'curAd'
p5343
I1
tp5344
a(S'posId'
p5345
I2
tp5346
a(S'documentgetElementsByClassNameposIdtoLowerCase0'
p5347
I1
tp5348
a(S'posSize'
p5349
I3
tp5350
a(S'posItem'
p5351
I3
tp5352
a(S'posItemmeta'
p5353
I1
tp5354
a(S'posItemmetavaluesize'
p5355
I1
tp5356
a(S'y'
p5357
I6
tp5358
a(S'Need'
p5359
I1
tp5360
a(S'handle'
p5361
I1
tp5362
a(S'1X1'
p5363
I1
tp5364
a(S'ad'
p5365
I2
tp5366
a(S'positions'
p5367
I2
tp5368
a(S'This'
p5369
I2
tp5370
a(S'need'
p5371
I2
tp5372
a(S'collapse'
p5373
I1
tp5374
a(S'LREC2'
p5375
I1
tp5376
a(S'1x1'
p5377
I2
tp5378
a(S'ads'
p5379
I1
tp5380
a(S'ifcurAd'
p5381
I1
tp5382
a(S'posSize'
p5383
I3
tp5384
a(S'posSize'
p5385
I3
tp5386
a(S'1x1'
p5387
I2
tp5388
a(S'curAdclassName'
p5389
I1
tp5390
a(S'noad'
p5391
I1
tp5392
a(S'windowperformance'
p5393
I2
tp5394
a(S'windowperformancenow'
p5395
I4
tp5396
a(S'var'
p5397
I30
tp5398
a(S'whiteListedAds'
p5399
I1
tp5400
a(S'LRECMASTTL1'
p5401
I1
tp5402
a(S'ltime'
p5403
I3
tp5404
a(S'windowperformancenow'
p5405
I4
tp5406
a(S'adLTpushADENDposId'
p5407
I1
tp5408
a(S'Mathroundltime'
p5409
I2
tp5410
a(S'setTimeoutfunction'
p5411
I4
tp5412
a(S'windowYAFT'
p5413
I1
tp5414
a(S'undefined'
p5415
I1
tp5416
a(S'windowYAFTisInitialized'
p5417
I1
tp5418
a(S'1'
p5419
I42
tp5420
a(S'whiteListedAdsindexOfposId'
p5421
I1
tp5422
a(S'Trigger'
p5423
I1
tp5424
a(S'custom'
p5425
I1
tp5426
a(S'timing'
p5427
I1
tp5428
a(S'LREC'
p5429
I2
tp5430
a(S'ad'
p5431
I2
tp5432
a(S'position'
p5433
I4
tp5434
a(S'windowYAFTtriggerCustomTimingfpadsposId'
p5435
I1
tp5436
a(S'ltime'
p5437
I3
tp5438
a(S'300'
p5439
I2
tp5440
a(S'DARLACONFonFailure'
p5441
I1
tp5442
a(S'functioneventId'
p5443
I1
tp5444
a(S'result'
p5445
I4
tp5446
a(S'var'
p5447
I30
tp5448
a(S'resultLen'
p5449
I2
tp5450
a(S'result'
p5451
I4
tp5452
a(S'resultlength'
p5453
I1
tp5454
a(S'isLrec2Failure'
p5455
I1
tp5456
a(S'result'
p5457
I4
tp5458
a(S'result'
p5459
I4
tp5460
a(S'400'
p5461
I1
tp5462
a(S'eventId'
p5463
I1
tp5464
a(S'eventIdindexOflrec2'
p5465
I1
tp5466
a(S'1'
p5467
I42
tp5468
a(S'i'
p5469
I3
tp5470
a(S'0'
p5471
I54
tp5472
a(S'adNode'
p5473
I1
tp5474
a(S'resultLen'
p5475
I2
tp5476
a(S'i'
p5477
I3
tp5478
a(S'0'
p5479
I54
tp5480
a(g5469
I3
tp5481
a(S'YUInamespacepresentation'
p5482
I1
tp5483
a(S'YUIpresentationlazyScriptList'
p5484
I1
tp5485
a(S'httpssyimgcomzzcombonnlibmetroguicontribrapid2913jsnnlibmetrogyuioop383jsnnlibmetrogyuieventcustombase383jsnnlibmetrogyuieventbase383jsnnlibmetrogyuiiobase383jsnnlibmetrogyuijsonparse383jsnnlibmetrogyuijsonstringify383jsnnlibmetrogyuicookie383jsnnlibmetrogyuidomcore383jsnnlibmetrogyuidombase383jsnnlibmetrogyuidomstyle383jsnnlibmetrogyuidomscreen383jsnnlibmetrogyuiselectornative383jsnnlibmetrogyuiselector383jsnnlibmetrogyuinodecore383jsnnlibmetrogyuinodebase383jsnnlibmetrogyuieventdelegate383jsnnlibmetrogyuinodeeventdelegate383jsnnlibmetrogyuipluginhostbase383jsnnlibmetrogyuipluginhostconfig383jsnnlibmetrogyuinodepluginhost383jsnnlibmetrogyuinodescreen383jsnnlibmetrogyuinodestyle383jsnnlibmetrogyuiattributecore383jsnnlibmetrogyuibasecore383jsnnlibmetrogyuieventcustomcomplex383jsnnlibmetrogyuiattributeobservable383jsnnlibmetrogyuiattributeextras383jsnnlibmetrogyuiattributebase383jsnnlibmetrogyuibaseobservable383jsnnlibmetrogyuibasebase383jsnnlibmetrogyuijsonp383jsnnlibmetrogyuitransition384jsnnlibmetrogyuieventsynthetic383jsnnlibmetrogyuieventfocus383jsnnlibmetrogyuibasebuild383jsnnlibmetrogyuiloaderbase383jsnnlibmetrogyuiloaderyui3383jsnnlibmetrogyuinodedeprecated383jsnnlibmetrogyuigallerystoragelite383jsnnlibmetrogyuiselectorcss2383jsnnlibmetrogyuiselectorcss3383jsnnlibmetrogyuieventresize383jsnnlibmetrogyuiplugin383jsnnlibmetrogyuinodescrollinfo383jsnnlibmetroguicontribdalimoduleplatform1119jsnnlibmetroguicontribdaliresourcemgr1118jsnnlibmetroguicontribdalidalitransport1136jshttpssyimgcomzzcombonnlibmetroguicontribdalimetrodali1029jsnnlibmetroguicontribdalimoduleapi1118jsnnlibmetroguicontribdaliyuiservice0121jsnnlibmetroguipluginsmetroviewtype0126jsnnlibmetroguipluginsdefaultviewtype0165jsnnlibmetroguipluginseditviewtype0144jsnnlibmetroguicontribylc1824jsnnlibmetroguipluginsinstrumentationservice01124jsnnlibmetroguipluginsmetrologgerservice0122jsnnlibmetroguipluginsautohideservice0119jsnnlibmetroguipluginssethomepageservice0038jsnnlibmetroguipluginslazyimage0014jsnnlibmetroguipluginsstickypositionservice0016jsnnlibmetroguipluginsuserinfoservice0119jsnnlibmetroguipluginsstatemgrservice0123jsnnlibmetroguipluginsmodalservice008jsnnlibmetroguipluginsariaservice0120jsnnlibmetroguipluginsiframeshimservice0022jsnnlibmetroguipluginsmenuservice0125jsnnlibmetroguipluginsarcadetransport1018jsnnlibmetroguipluginstabliteservice0012jsnnlibmetroguipluginstablistservice0147jsnnlibmetroguipluginstooltipservice0159jsnnlibmetroguipluginscarouselservice0164jsnnlibmetrogfpfp01170jsnnlibmetroguniversalheaderuniversalheader0026jsnnlibmetrogtabbartabbar0042jsnnlibmetroguipluginstransporthelperservice005jsnnlibmetroguipluginsloginservice0052jsnnlibmetrogtuctuc00109jsnnlibmetrogloginlogin0039jsnnlibmetrogmailmail0050jsnnlibmetrogtrendingnowtrendingnow0028jsnnlibmetrogsdasda0170jsnnlibmetrognavrailnavrail0076jsnnlibmetrogadsfallbackadsfallback0044jsnnlibmetrogtrendingnowcarouseltrendingnowcarousel0021jsnnlibmetroggamesgames003jsnnlibmetrogdailyfantasydailyfantasy0015jsnnlibmetrogappscontainerappscontainer0037jsnnlibmetrogtopheadlinestopheadlines0015jshttpssyimgcomzzcombonnlibmetrogweatherweather0142jsnnlibmetrogfinancefinance01140jsnnlibmetrogsportacularsportacular0040jsnnlibmetrogflickrflickr0016jsnnlibmetrogtopvideostopvideos0017jsnnlibmetroghoroscopehoroscope0152jsnnlibmetrogcomicscomics0024jsnnlibmetrogwindowshadewindowshade0019jsnnlibmetrogtodaycontainertodaycontainer0021jsnnlibmetrogfptodayfptodayhover1553jsnnlibmetrogoffleadofflead0032jsnnlibmetrogliveventlivevent0013jsnnlibmetroguipluginsstorageservice003jsnnlibmetrogfstreamfstream00119jsnnlibmetrogstreamstream00536jsnnlibmetroguipluginsinterestsservice013jsnnlibmetrogstreamstreamactiondrawer0055jsnnlibmetrogstreamvideomanager0058jsnnlibmetrogmastheadmasthead02313js'
p5486
I1
tp5487
a(S'YUIpresentationpostLoad'
p5488
I2
tp5489
a(S'cometdyui3'
p5490
I1
tp5491
a(S'path'
p5492
I40
tp5493
a(S'nnlibmetroguicontribcometdyui3004js'
p5494
I1
tp5495
a(S'requires'
p5496
I28
tp5497
a(S'basebaseiobaseioqueuejsoncookiejsonpjsonpurlasyncqueueafpipe'
p5498
I1
tp5499
a(S'path'
p5500
I40
tp5501
a(S'nnlibmetroguicontribafpipe003js'
p5502
I1
tp5503
a(S'requires'
p5504
I28
tp5505
a(S'afbeaconafcometafconfigafutilscometdyui3afbeacon'
p5506
I1
tp5507
a(S'path'
p5508
I40
tp5509
a(S'nnlibmetroguicontribafbeacon002js'
p5510
I1
tp5511
a(S'requires'
p5512
I28
tp5513
a(S'querystringstringifysimpleafcomet'
p5514
I1
tp5515
a(S'path'
p5516
I40
tp5517
a(S'nnlibmetroguicontribafcomet004jsafconfig'
p5518
I1
tp5519
a(S'path'
p5520
I40
tp5521
a(S'nnlibmetroguicontribafconfig002jsafutils'
p5522
I1
tp5523
a(S'path'
p5524
I40
tp5525
a(S'nnlibmetroguicontribafutils002js'
p5526
I1
tp5527
a(S'requires'
p5528
I28
tp5529
a(S'querystringparsesimplelwcore'
p5530
I1
tp5531
a(S'path'
p5532
I40
tp5533
a(S'nnlibmetroguicontriblwcore004js'
p5534
I1
tp5535
a(S'requires'
p5536
I28
tp5537
a(S'lwbase64lwgeolwgeocoderlwautosuggestlwyqllwbase64'
p5538
I1
tp5539
a(S'path'
p5540
I40
tp5541
a(S'nnlibmetroguicontriblwbase64003jslwautosuggest'
p5542
I1
tp5543
a(S'path'
p5544
I40
tp5545
a(S'nnlibmetroguicontriblwautosuggest004js'
p5546
I1
tp5547
a(S'requires'
p5548
I28
tp5549
a(S'jsonpjsonpurllwbase64lwgeo'
p5550
I1
tp5551
a(S'path'
p5552
I40
tp5553
a(S'nnlibmetroguicontriblwgeo003jslwgeocoder'
p5554
I1
tp5555
a(S'path'
p5556
I40
tp5557
a(S'nnlibmetroguicontriblwgeocoder003js'
p5558
I1
tp5559
a(S'requires'
p5560
I28
tp5561
a(S'jsonpjsonpurllwbase64lwyql'
p5562
I1
tp5563
a(S'path'
p5564
I40
tp5565
a(S'nnlibmetroguicontriblwyql004js'
p5566
I1
tp5567
a(S'requires'
p5568
I28
tp5569
a(S'jsonpjsonpurllwoverlay'
p5570
I1
tp5571
a(S'path'
p5572
I40
tp5573
a(S'nnlibmetroguicontriblwoverlay003js'
p5574
I1
tp5575
a(S'requires'
p5576
I28
tp5577
a(S'nodeeventbaselwstylecss'
p5578
I1
tp5579
a(S'path'
p5580
I40
tp5581
a(S'nnlibmetroguicontriblwstylecss002csslwview'
p5582
I1
tp5583
a(S'path'
p5584
I40
tp5585
a(S'nnlibmetroguicontriblwview007js'
p5586
I1
tp5587
a(S'requires'
p5588
I28
tp5589
a(S'nodesubstitutetransitionoverlaylwoverlaylwcorelwstylecsssafarisearchset'
p5590
I1
tp5591
a(S'path'
p5592
I40
tp5593
a(S'nnlibmetroguicontribsafarisearchset007jsldservice'
p5594
I1
tp5595
a(S'path'
p5596
I40
tp5597
a(S'nnlibmetroguipluginsldservice007js'
p5598
I1
tp5599
a(S'requires'
p5600
I28
tp5601
a(S'moduleplatformlwviewmetrologgerserviceautohideservicelocationservice'
p5602
I1
tp5603
a(S'path'
p5604
I40
tp5605
a(S'nnlibmetroguipluginslocationservice0014js'
p5606
I1
tp5607
a(S'requires'
p5608
I28
tp5609
a(S'ldservicetooltipservicebasepluginhost'
p5610
I1
tp5611
a(S'path'
p5612
I40
tp5613
a(S'nnlibmetrogyuibasepluginhost383js'
p5614
I1
tp5615
a(S'requires'
p5616
I28
tp5617
a(S'basebasepluginhostsubstitute'
p5618
I1
tp5619
a(S'path'
p5620
I40
tp5621
a(S'nnlibmetrogyuisubstitute383jsioqueue'
p5622
I1
tp5623
a(S'path'
p5624
I40
tp5625
a(S'nnlibmetrogyuiioqueue3151js'
p5626
I1
tp5627
a(S'requires'
p5628
I28
tp5629
a(S'iobasequerystringstringifysimple'
p5630
I1
tp5631
a(S'path'
p5632
I40
tp5633
a(S'nnlibmetrogyuiquerystringstringifysimple382jsjsonpurl'
p5634
I1
tp5635
a(S'path'
p5636
I40
tp5637
a(S'nnlibmetrogyuijsonpurl383js'
p5638
I1
tp5639
a(S'requires'
p5640
I28
tp5641
a(S'jsonpclassnamemanager'
p5642
I1
tp5643
a(S'path'
p5644
I40
tp5645
a(S'nnlibmetrogyuiclassnamemanager383jswidgetbase'
p5646
I1
tp5647
a(S'path'
p5648
I40
tp5649
a(S'nnlibmetrogyuiwidgetbase384js'
p5650
I1
tp5651
a(S'requires'
p5652
I28
tp5653
a(S'attributebaseattributecomplexbasebasebasepluginhostnodebasenodestyleeventfocusclassnamemanagerwidgetbasecsswidgethtmlparser'
p5654
I1
tp5655
a(S'path'
p5656
I40
tp5657
a(S'nnlibmetrogyuiwidgethtmlparser383js'
p5658
I1
tp5659
a(S'requires'
p5660
I28
tp5661
a(S'widgetbasewidgetskin'
p5662
I1
tp5663
a(S'path'
p5664
I40
tp5665
a(S'nnlibmetrogyuiwidgetskin383js'
p5666
I1
tp5667
a(S'requires'
p5668
I28
tp5669
a(S'widgetbasewidgetuievents'
p5670
I1
tp5671
a(S'path'
p5672
I40
tp5673
a(S'nnlibmetrogyuiwidgetuievents383js'
p5674
I1
tp5675
a(S'requires'
p5676
I28
tp5677
a(S'widgetbasenodeeventdelegatequerystringparsesimple'
p5678
I1
tp5679
a(S'path'
p5680
I40
tp5681
a(S'nnlibmetrogyuiquerystringparsesimple383jsasyncqueue'
p5682
I1
tp5683
a(S'path'
p5684
I40
tp5685
a(S'nnlibmetrogyuiasyncqueue3151js'
p5686
I1
tp5687
a(S'requires'
p5688
I28
tp5689
a(S'eventcustomattributecomplex'
p5690
I1
tp5691
a(S'path'
p5692
I40
tp5693
a(S'nnlibmetrogyuiattributecomplex381js'
p5694
I1
tp5695
a(S'requires'
p5696
I28
tp5697
a(S'attributebasewidgetposition'
p5698
I1
tp5699
a(S'path'
p5700
I40
tp5701
a(S'nnlibmetrogyuiwidgetposition381js'
p5702
I1
tp5703
a(S'requires'
p5704
I28
tp5705
a(S'basebuildnodescreenwidgetbasewidgethtmlparserwidgetskinwidgetuieventswidgetstdmod'
p5706
I1
tp5707
a(S'path'
p5708
I40
tp5709
a(S'nnlibmetrogyuiwidgetstdmod381js'
p5710
I1
tp5711
a(S'requires'
p5712
I28
tp5713
a(S'basebuildwidgetbasewidgethtmlparserwidgetskinwidgetuieventswidgetstack'
p5714
I1
tp5715
a(S'path'
p5716
I40
tp5717
a(S'nnlibmetrogyuiwidgetstack381js'
p5718
I1
tp5719
a(S'requires'
p5720
I28
tp5721
a(S'basebuildwidgetbasewidgethtmlparserwidgetskinwidgetuieventswidgetstackcsswidgetpositionalign'
p5722
I1
tp5723
a(S'path'
p5724
I40
tp5725
a(S'nnlibmetrogyuiwidgetpositionalign381js'
p5726
I1
tp5727
a(S'requires'
p5728
I28
tp5729
a(S'widgetpositionwidgetpositionconstrain'
p5730
I1
tp5731
a(S'path'
p5732
I40
tp5733
a(S'nnlibmetrogyuiwidgetpositionconstrain381js'
p5734
I1
tp5735
a(S'requires'
p5736
I28
tp5737
a(S'widgetpositionoverlay'
p5738
I1
tp5739
a(S'path'
p5740
I40
tp5741
a(S'nnlibmetrogyuioverlay381js'
p5742
I1
tp5743
a(S'requires'
p5744
I28
tp5745
a(S'widgetbasewidgethtmlparserwidgetskinwidgetuieventswidgetstdmodwidgetpositionwidgetpositionalignwidgetstackwidgetpositionconstrainoverlaycssoverlaycss'
p5746
I1
tp5747
a(S'path'
p5748
I40
tp5749
a(S'nnlibmetrogyuioverlaycss381csswidgetstackcss'
p5750
I1
tp5751
a(S'path'
p5752
I40
tp5753
a(S'nnlibmetrogyuiwidgetstackcss381csswidgetbasecss'
p5754
I1
tp5755
a(S'path'
p5756
I40
tp5757
a(S'nnlibmetrogyuiwidgetbasecss381css'
p5758
I1
tp5759
a(S'rtJSLoadNumbernew'
p5760
I1
tp5761
a(S'Date'
p5762
I2
tp5763
a(S'function'
p5764
I12
tp5765
a(S'YUIadddaliconfig'
p5766
I1
tp5767
a(S'functionY'
p5768
I2
tp5769
a(S'Ynamespacedaliconfig'
p5770
I1
tp5771
a(S'Ydaliconfig'
p5772
I1
tp5773
a(S'propsdalicrumbinvalidmLogin0proxyUrlhjsdatanullmodsdatamapleplatformmodulep13838465instancep13838465baidp13838465chrome1signatureRbozikhk8NgqGMDmKHw6wywaTrackingEnabled0ywaProjectIdshoppingPartner0searchIntlusvisibleItems10preloadSRPfalsesrpAssetURLhttpsearchyahoocomresourcesjs1saytconnectionpriming0horizontalPadding0emreverseHighlight1disableUraBeaconsfalseilc1browserunknownrandomPromo1sethpPromoShare0showOnlySetHP0saytEnabled1adPromoNodeHack0allowredirectedultlinksfalseformDatawebbuttonSearchactionhttpssearchyahoocomsearchbcnDrawerOpenhttpwwwyahoocombcnDrawerClosehttpwwwyahoocombcnAutoOpenhttpwwwyahoocombcnScrollhttpwwwyahoocombcnOnOffhttpwwwyahoocomyltClickSuggestionhttpssearchyahoocomsearchyltInfoPagehttptoolssearchyahoocomnewsearchsearchassisthtmlsettingsUrlhttpsearchyahoocompreferencespreferencespagesearchassistnoQueryURLnullemptyNavURLnullmorehrefhttptoolssearchyahoocomaboutforsearchershtmlimagesbuttonImage'
p5774
I1
tp5775
a(S'SearchactionhttpimagessearchyahoocomsearchimagesbcnDrawerOpenhttpwwwyahoocombcnDrawerClosehttpwwwyahoocombcnAutoOpenhttpwwwyahoocombcnScrollhttpwwwyahoocombcnOnOffhttpwwwyahoocomyltClickSuggestionhttpimagessearchyahoocomsearchimagesyltInfoPagehttptoolssearchyahoocomnewsearchsearchassisthtmlsettingsUrlhttpsearchyahoocompreferencespreferencespagesearchassistnoQueryURLnullemptyNavURLnullvideobuttonVideo'
p5776
I1
tp5777
a(S'SearchactionhttpvideosearchyahoocomsearchvideonoQueryURLhttpvideosearchyahoocomvideoemptyNavURLnullnewsbuttonNews'
p5778
I1
tp5779
a(S'SearchactionhttpnewssearchyahoocomsearchnoQueryURLhttpnewssearchyahoocomemptyNavURLnulllocalbuttonLocal'
p5780
I1
tp5781
a(S'SearchactionhttpsearchyahoocomlocalsparamQuerypnoQueryURLhttpsearchyahoocomlocalparamLocationaddrlocationGhostTextAddress'
p5782
I1
tp5783
a(S'City'
p5784
I2
tp5785
a(S'State'
p5786
I9
tp5787
a(S'ZIPallhrefhttptoolssearchyahoocomaboutforsearchershtmladvancedhrefhttpsearchyahoocomwebadvancedprefhrefhttpsearchyahoocompreferencespreferencessaDatanormalizationRulesAAu00c0u00c1u00c2u00c3AEAEu00c6u00c4CCu00c7EEu00c8u00c9u00cau00cbIIu00ccu00cdu00ceu00cfDDu00d0NNu00d1OOu00d2u00d3u00d4u00d5OEOEu00d6u00d8UUu00d9u00dau00dbUEUEu00dcYYu00ddTHTHu00deSSSSu00df'
p5788
I1
tp5789
a(S'minQueryLength2queryDelay200webGossipUrlhttpssearchyahoocomsugggossipgossipusfpnresults10queryfirst2appidfpoutputyjsonpversioncommandimgGossipUrlhttpssearchyahoocomsugggossipgossipusfpoutputyjsonpappidfpcommandwebRichPanelUrlhttpuraussearchyahoocomsdojsonpursapqrevnullopenAnimDisabled0openAnimDuration02originnullvtestidnullcloseAnimDuration015cssFontSizeSAYTcssSAWindowMaxHeightIE6176emcssSAWindowSuggestionHeightIE6152tpcGifUrlhttpssearchyahoocombeacontpcgifenableAnimationtruenewWebGossipUrlEnable0HTMLMINIASSISTDISABLEDSuggestions'
p5790
I1
tp5791
a(S'turned'
p5792
I2
tp5793
a(S'offHTMLSECONDINPUTHTMLSECONDLABELinHTMLHOODCONTENTENABLEDn'
p5794
I1
tp5795
a(S'n'
p5796
I128
tp5797
a(S'No'
p5798
I1
tp5799
a(S'suggestionsn'
p5800
I1
tp5801
a(S'Please'
p5802
I2
tp5803
a(S'begin'
p5804
I1
tp5805
a(S'typing'
p5806
I1
tp5807
a(S'your'
p5808
I25
tp5809
a(S'search'
p5810
I3
tp5811
a(S'queryn'
p5812
I1
tp5813
a(S'nHTMLHOODCONTENTDISABLEDn'
p5814
I1
tp5815
a(S'n'
p5816
I128
tp5817
a(S'Suggestions'
p5818
I1
tp5819
a(S'turned'
p5820
I2
tp5821
a(S'offn'
p5822
I1
tp5823
a(S'n'
p5824
I128
tp5825
a(S'n'
p5826
I128
tp5827
a(S'Click'
p5828
I1
tp5829
a(S'here'
p5830
I2
tp5831
a(S'activaten'
p5832
I1
tp5833
a(S'n'
p5834
I128
tp5835
a(S'n'
p5836
I128
tp5837
a(S'nHTMLRESULTSLISTHTMLRESULTSITEMHTMLRESULTSSCROLLARROWSHTMLERRORSTRUCTUREerrormsgnClosesearchmorefirstitemnulldefLocCheonan'
p5838
I1
tp5839
a(S'ChungcheongnamDointlLocCheonandummyYLTYAHOOCSCPVIDFkuD3Dk4LjGPxRHvLJ9dbgdMMjAzLlZJ4scAAAAAFIRSTTABFORSEARCHwebsearchtabwebshowdrawerhandlefalsesearchtabimagesshowdrawerhandlefalsesearchtabwebshowdrawertruesearchtabimagesshowdrawertrueusefxjsonpfalsespaceid2023538075scrollsize10searchfiltercompactenabled1searchTrackingfp1propsrefHandlercfgmapledalihandlerrefreshidp13838465nstypemastheadtypemastheadtrustedtruecontentId13838465tagstitleMastheadicondetailUrlstatecollapsed0viewdefaultdeferfalsestrsSTRMASTHEADLABELSEARCHTERMSSearchtermsSTRMASTHEADHASSUGGESTIONOne'
p5840
I1
tp5841
a(S'more'
p5842
I25
tp5843
a(S'search'
p5844
I3
tp5845
a(S'suggestions'
p5846
I2
tp5847
a(S'available'
p5848
I2
tp5849
a(S'Use'
p5850
I1
tp5851
a(S'up'
p5852
I7
tp5853
a(S'down'
p5854
I3
tp5855
a(S'arrow'
p5856
I2
tp5857
a(S'keys'
p5858
I2
tp5859
a(S'navigate'
p5860
I1
tp5861
a(S'between'
p5862
I1
tp5863
a(S'themSTRMASTHEADNOSUGGESTIONNo'
p5864
I1
tp5865
a(S'search'
p5866
I3
tp5867
a(S'suggestions'
p5868
I2
tp5869
a(S'availableSTRSADROPDOWNDESCRIPTIONUse'
p5870
I1
tp5871
a(S'up'
p5872
I7
tp5873
a(S'down'
p5874
I3
tp5875
a(S'arrow'
p5876
I2
tp5877
a(S'keys'
p5878
I2
tp5879
a(S'select'
p5880
I1
tp5881
a(S'suggestionsSTRSATOGGLEONOpen'
p5882
I1
tp5883
a(S'Search'
p5884
I6
tp5885
a(S'AssistSTRSATOGGLEOFFClose'
p5886
I1
tp5887
a(S'Search'
p5888
I6
tp5889
a(S'AssistSTRSASETTINGSSettingsresdatamapleplatformmodulep30345868instancep30345868baidp30345868chrome1signature3szOZmu25RGUmKRZJufcQmoreClickEnabledtruestrmoreMorepropsrefHandlercfgmapledalihandlerrefreshidp30345868nstypeuniversalheadertrustedtruetypeuniversalheadercontentId30345868tagstitleiconshortTitledetailUrlchromecolorbluestateviewdefaultdeferfalsecollapsed0strsresmodsstateviewdefaultdeferfalsecollapsed0propsidp30346005typeeyebrowpromonstypeeyebrowpromocontentId30346005tagstitleiconshortTitledetailUrlchromecolorblueprefsisc0mc0datamapleplatformmodulep30345610instancep30345610baidp30345610chrome1signatureUDcNP3SteHsXBzMoNsvMYwpropsrefHandlercfgmapledalihandlerrefreshidp30345610nstypetabbartrustedtruetypetabbarcontentId30345610tagstitleiconshortTitledetailUrlchromecolorbluestateviewdefaultdeferfalsecollapsed0strsresmodspropstrustedtrueidp30345710e26typetucnstypetuccontentId30345710tagstitleTiny'
p5890
I1
tp5891
a(S'User'
p5892
I2
tp5893
a(S'CardiconshortTitleTiny'
p5894
I1
tp5895
a(S'User'
p5896
I2
tp5897
a(S'CarddetailUrlchromecolorbluedatabrowserunknownrecognizedStatefalsewave3truesignOutTooltipEnabledfalsewave3badgefalsetucsociallogintrueshowBeaconhttpwwwyahoocomstateviewdefaultdeferfalsecollapsed0prefsisc0mc0propstrustedtrueidp30345624b92typeymailnstypemailcontentId30345624tagstitleMailiconiwwmetpaiconsmail22081309gifshortTitleMaildetailUrlhttpsmailyahoocomsrcymintluschromecolorbluestrsFALLBACK'
p5898
I1
tp5899
a(S'n'
p5900
I128
tp5901
a(S'Were'
p5902
I2
tp5903
a(S'unable'
p5904
I1
tp5905
a(S'save'
p5906
I3
tp5907
a(S'your'
p5908
I25
tp5909
a(S'information'
p5910
I1
tp5911
a(S'momentn'
p5912
I1
tp5913
a(S'Please'
p5914
I2
tp5915
a(S'try'
p5916
I3
tp5917
a(S'again'
p5918
I1
tp5919
a(S'later'
p5920
I1
tp5921
a(S'OKstateviewdefaultdeferfalsecollapsed0datapltabbarrecognizedStatefalselogOutMsgDly2000isLoggedOutPagefalsewssidTokenshowBeaconhttpwwwyahoocommailtranslationsnNo'
p5922
I1
tp5923
a(S'new'
p5924
I10
tp5925
a(S'emails0'
p5926
I1
tp5927
a(S'new'
p5928
I10
tp5929
a(S'emailp0'
p5930
I1
tp5931
a(S'new'
p5932
I10
tp5933
a(S'emailsrYou'
p5934
I1
tp5935
a(S'haveprefsisc0mc0datamapleplatformmodulep30345998instancep30345998baidp30345998chrome1signatureNiyVBGdjaDvNAkb7jvKouAtabcount1animationdurationcount10500tickerenabledtruetickerblockfeaturetruepropsrefHandlercfgmapledalihandlerrefreshidp30345998nstypetrendingnowtypetrendingnowcontentId30345998tagstitleiconshortTitledetailUrlchromecolorbluestateviewdefaultdeferfalsecollapsed0strsresmodspropstrustedtrueidp30345661ca0typeadsnstypeadscontentId30345661tagstitleTrending'
p5936
I1
tp5937
a(S'now'
p5938
I2
tp5939
a(S'Ad'
p5940
I3
tp5941
a(S'TNMODiconshortTitleTrending'
p5942
I1
tp5943
a(S'now'
p5944
I2
tp5945
a(S'Ad'
p5946
I3
tp5947
a(S'TNMODdetailUrlchromecolorbluedataadlocstnmodstateviewdefaultdeferfalsecollapsed0splerror1prefsisc0mc0datamapleplatformmodulep30346008instancep30346008baidp30346008chrome1signaturebQ2eDhx7272LgnACWQorGApropsrefHandlercfgmapledalihandlerrefreshidp30346008nstypeassetcollectortypeassetcollectorcontentId30346008tagstitleiconshortTitledetailUrlchromecolorbluestateviewdefaultdeferfalsecollapsed0strsresdatamapleplatformmodulep30345978instancep30345978baidp30345978chrome1signature4Dff76upGLj8PqHw0AzNaQadlocsmastpropsrefHandlercfgmapledalihandlerrefreshidp30345978nstypeadstrustedtruetypeadscontentId30345978tagstitleMASTiconshortTitleMASTdetailUrlchromecolorbluestateviewdefaultdeferfalsecollapsed0strsresdatamapleplatformmodulep30345789instancep30345789baidp30345789chrome1signatureMXIL9LCdWlxuTfO3at63gusemoresitesmenu1favcustomizationenabled0adsfallbackDatadatarandomPromo0browserunknownsethpPromoShare0showOnlySetHP0forceSethp0overlayEnabled1ilc1beaconAkqaUrlhttpsasrpxnetsstsrtidjvmajed5yygwv1img1srrtcvnsrstdcnhpOverlayhpCoden'
p5948
I1
tp5949
a(S'n'
p5950
I128
tp5951
a(S'Make'
p5952
I5
tp5953
a(S'Yahoo'
p5954
I26
tp5955
a(S'your'
p5956
I25
tp5957
a(S'homepagen'
p5958
I1
tp5959
a(S'npromoCodepropstrustedtrueidp30345830f40typeadsfallbacknstypeadsfallbackcontentId30345830tagstitleMastheadiconshortTitleMastheaddetailUrlchromecolorbluestateviewdefaultdeferfalsecollapsed0prefsisc0mc0propsrefHandlercfgmapledalihandlerrefreshidp30345789nstypenavrailtrustedtruetypenavrailcontentId30345789tagstitleiconshortTitledetailUrlchromecolorbluestateviewdefaultdeferfalsecollapsed0strsresdatamapleplatformmodulep30345986instancep30345986baidp30345986chrome1signatureDQf1Lyapgf6alcd2v8GHZQrotationDelay12000lazyLoadfalseitemListsmaingiftspropsrefHandlercfgmapledalihandlerrefreshidp30345986nstypetrendingnowcarouseltypetrendingnowcarouselcontentId30345986tagstitleiconshortTitledetailUrlchromecolorbluestateviewdefaultdeferfalsecollapsed0strsresdatamapleplatformmodulep30345997instancep30345997baidp30345997chrome1signatureuzln9kcIORimZxsXnkFEpgpropsrefHandlercfgmapledalihandlerrefreshidp30345997nstypegamestrustedtruetypegamescontentId30345997tagstitleiconshortTitledetailUrlchromecolorbluestateviewdefaultdeferfalsecollapsed0strsresdatamapleplatformmodulep30346014instancep30346014baidp30346014chrome1signatureYycLYt0WBssJTOpNqjYvApropsrefHandlercfgmapledalihandlerrefreshidp30346014nstypedailyfantasytypedailyfantasycontentId30346014tagstitleiconshortTitledetailUrlchromecolorbluestateviewdefaultdeferfalsecollapsed0strsresdatamapleplatformmodulep30346000instancep30346000baidp30346000chrome1signatureQ5c7KxTaOIJc8uHxJgHeApropsrefHandlercfgmapledalihandlerrefreshidp30346000nstypelivenationpromotypelivenationpromocontentId30346000tagstitleiconshortTitledetailUrlchromecolorbluestateviewdefaultdeferfalsecollapsed0strsresdatamapleplatformmodulep13923486instancep13923486baidp13923486chrome1signatureu0KwSyszg3EC21CoTopzwadlocsfpadpropsrefHandlercfgmapledalihandlerrefreshidp13923486nstypeadstrustedtruetypeadscontentId13923486tagstitleFP'
p5960
I1
tp5961
a(S'ADsiconshortTitleFP'
p5962
I3
tp5963
a(S'ADsdetailUrlchromecolorbluestateviewdefaultdeferfalsecollapsed0strsresdatamapleplatformmodulep30345987instancep30345987baidp30345987chrome1signaturegKfaDuu7NDTtLJnKDDC9wadlocslrecpropsrefHandlercfgmapledalihandlerrefreshidp30345987nstypeadstrustedtruetypeadscontentId30345987tagstitleFP'
p5964
I1
tp5965
a(S'ADsiconshortTitleFP'
p5966
I3
tp5967
a(S'ADsdetailUrlchromecolorbluestateviewdefaultdeferfalsecollapsed0strsresdatamapleplatformmodulep30345980instancep30345980baidp30345980chrome1signatureTJLOOl5LYuV8bWGrYt8egpropsrefHandlercfgmapledalihandlerrefreshidp30345980nstypemagpromotetypemagpromotecontentId30345980tagstitleiconshortTitledetailUrlchromecolorbluestateviewdefaultdeferfalsecollapsed0strsresdatamapleplatformmodulep30346003instancep30346003baidp30346003chrome1signatureyBTAeFV40bKEIBhmJFgApropsrefHandlercfgmapledalihandlerrefreshidp30346003nstypetrendingnowcarouseltypetrendingnowcarouselcontentId30346003tagstitleiconshortTitledetailUrlchromecolorbluestateviewdefaultdeferfalsecollapsed0strsresdatamapleplatformmodulep30345823instancep30345823baidp30345823chrome1signatureks1XJdCaWZxw6DWkiE1Pgrapidenabled0enableAppManagementtrueenableAppReorderingfalselockOrdering0adPosition2enableAppReorderingLoggedOutfalsecurrentBucket901recognizedStatefalseremoveCtaAre'
p5968
I1
tp5969
a(S'you'
p5970
I24
tp5971
a(S'sureremoveCtaRemoveBtnRemoveremoveCtaCancelBtnCancelhasCustomAppOrderfalsestreamClickReordingEnabledtruepropsrefHandlercfgmapledalihandlerrefreshidp30345823nstypeappscontainertrustedtruetypeappscontainercontentId30345823tagstitleiconshortTitledetailUrlchromecolorbluestateviewdefaultdeferfalsecollapsed0strsresmodsdatatabNavigationModetabspropstrustedtrueidp30345940typetopheadlinesnstypetopheadlinescontentId30345940tagstitleiconshortTitledetailUrlchromecolorbluestateviewdefaultdeferfalsecollapsed0prefsisc0mc0propslocationBasedtruetrustedtrueidp63794typeweathernstypeweathercontentId63794tagstitleWeathericoniwwmetpaicons18weather20100602gifshortTitleWeatherdetailUrlhttpsweatheryahoocomredirwoei1132455chromecolorvioletdataenableAppManagementtrueenableUpdateButtonfalseuseGlApitruerefreshModfalsenavigatorAvailtruelocOverridefalsestrFindFindisApptruelocationPickerEnabledtrueforceIpLocationrapidenabled0beaconsecappweabeaconrspnsnavbeacont1a4beacont2appweabeacont3ctbeaconelmicnbeaconelmtlocbeaconslkloclocaleenUScountryfilterUSuserlocCheonankeepLocationn'
p5972
I1
tp5973
a(S'n'
p5974
I128
tp5975
a(S'Cheonann'
p5976
I1
tp5977
a(S'Visit'
p5978
I3
tp5979
a(S'Yahoo'
p5980
I26
tp5981
a(S'Weather'
p5982
I3
tp5983
a(S'detailed'
p5984
I2
tp5985
a(S'forecastn'
p5986
I2
tp5987
a(S'Deleten'
p5988
I2
tp5989
a(S'nlocdropcrumbloadingMessageLoadingstrsFALLBACKn'
p5990
I1
tp5991
a(S'n'
p5992
I128
tp5993
a(S'Weathern'
p5994
I1
tp5995
a(S'Visit'
p5996
I3
tp5997
a(S'Yahoo'
p5998
I26
tp5999
a(S'Weather'
p6000
I3
tp6001
a(S'detailed'
p6002
I2
tp6003
a(S'forecastn'
p6004
I2
tp6005
a(S'Deleten'
p6006
I2
tp6007
a(S'nstateviewdefaultdeferfalsecollapsed0prefsisc0mc0propstrustedtrueidp93109typefinancenstypefinancecontentId93109tagstitleFinanceiconiwwmetpaicons18fin20100602gifshortTitleFinancedetailUrlhttpfinanceyahoocomchromecolorvioletdatafinancePortfolioUrlfinanceyahoocomportfoliosapiMigrationModetrueenableSettingspanefalsetabNavigationModetabsenableRQInlineEditfalseenableAutocompletetrueenableAppManagementtruecurrentBucket901autocompleteUrlhttpssyimgcomaqautocqueryqueryregionUSlangenUScallbackcallbackrapidenabledfalsestateviewdefaultdeferfalsecollapsed0prefsisc0mc0propstrustedtrueidp30345807typesportacularnstypesportacularcontentId30345807tagstitleiconshortTitledetailUrlchromecolorbluedatarapidenabled0enableAutocompletetrueenableGroupByStatustrueenableMyTeamstrueenableBucketedGamestrueenableAppManagementtruetabNavigationModetabsdefaultPanelCounter1stateviewdefaultdeferfalsecollapsed0prefsisc0mc0dataisFlickrUserfalseenableMyPhotostrueenableAppManagementtruestateviewdefaultdeferfalsecollapsed0propsidp30345818typeflickrnstypeflickrcontentId30345818tagstitleiconshortTitledetailUrlchromecolorblueprefsisc0mc0stateviewdefaultdeferfalsecollapsed0dataccodehomerunv2ct3searchBoxEnabledtruevideoinlineenabledfalsepropsidp30345835typetopvideosnstypetopvideoscontentId30345835tagstitleiconshortTitledetailUrlchromecolorblueprefsisc0mc0propstrustedtrueidp30345990typegamesnstypegamescontentId30345990tagstitleiconshortTitledetailUrlchromecolorbluestateviewdefaultdeferfalsecollapsed0prefsisc0mc0stateviewdefaultdeferfalsecollapsed0propsidp30346013typedailyfantasynstypedailyfantasycontentId30346013tagstitleiconshortTitledetailUrlchromecolorblueprefsisc0mc0propstrustedtrueidp63802typehoroscopenstypehoroscopecontentId63802tagstitleHoroscopesiconiwwmetpaicons18horo20100602gifshortTitleHoroscopesdetailUrlhttpshineyahoocomhoroscopechromecolorbluedatacookieDomainwwwyahoocomcookieSignKeysavedSignrapidenabled0enableAppManagementtruestateviewdefaultdeferfalsecollapsed0prefsisc0mc0propstrustedtrueidp30345876typecomicsnstypecomicscontentId30345876tagstitleiconshortTitledetailUrlchromecolorbluedatarapidenabled0strsSTRCOMICSFALLBACKnVisit'
p6008
I1
tp6009
a(S'Yahoo'
p6010
I26
tp6011
a(S'News'
p6012
I6
tp6013
a(S'see'
p6014
I4
tp6015
a(S'all'
p6016
I5
tp6017
a(S'your'
p6018
I25
tp6019
a(S'favorite'
p6020
I2
tp6021
a(S'comicsnstateviewdefaultdeferfalsecollapsed0prefsisc0mc0datamapleplatformmodulep30345989instancep30345989baidp30345989chrome1signaturecnRvjUjCWdi2BJKuwbPiWQadlocslrec2selectiveRenderingtruebucketSAtruedarlaCtxpositionMetaposLREC2idLREC2cleanfpadsLREC2destfpadsLREC2iframew300h250fdbtruemetaSizetruesupportsexpovr0sizeSiteAttr300x2501x1bucket901intlusrid7enarfpb4jom7spaceid2023538075reflexiveadsspaceid2023538075isreflexiveadsenabledtruereflexiveadstimeinterval15000propsrefHandlercfgmapledalihandlerrefreshidp30345989nstypeadstrustedtruetypeadscontentId30345989tagstitleFP'
p6022
I1
tp6023
a(S'ADsiconshortTitleFP'
p6024
I3
tp6025
a(S'ADsdetailUrlchromecolorbluestateviewdefaultdeferfalsecollapsed0strsresdatamapleplatformmodulep24803755instancep24803755baidp24803755chrome1signaturejQhurS9RkNqsOs1v9PItowpropsrefHandlercfgmapledalihandlerrefreshidp24803755nstypesubfootertypesubfootercontentId24803755tagstitleSubfootericonshortTitleSubfooterdetailUrlchromecolorbluestateviewdefaultdeferfalsecollapsed0strsresdatamapleplatformmodulep15014391instancep15014391baidp15014391chrome1signatureNzDxHbrbiIVljo0EZJh0Owadlocshdln2propsrefHandlercfgmapledalihandlerrefreshidp15014391nstypeadstrustedtruetypeadscontentId15014391tagstitleDynamic'
p6026
I1
tp6027
a(S'Logic'
p6028
I2
tp6029
a(S'SurveysiconshortTitleDynamic'
p6030
I1
tp6031
a(S'Logic'
p6032
I2
tp6033
a(S'SurveysdetailUrlchromecolorbluestateviewdefaultdeferfalsecollapsed0strsresdatamapleplatformmodulep30345871instancep30345871baidp30345871chrome1signaturetXnCX1WW1CmDsMM02AEeAmessagesEnabledautoClosetruepropsrefHandlercfgmapledalihandlerrefreshidp30345871nstypewindowshadetypewindowshadecontentId30345871tagstitleiconshortTitledetailUrlchromecolorbluestateviewdefaultdeferfalsecollapsed0strsresdatamapleplatformmodulep26391799instancep26391799baidp26391799chrome1signaturebmPE5MwTTnlsPp5reaLwpropsrefHandlercfgmapledalihandlerrefreshidp26391799nstypebreakingnewstypebreakingnewscontentId26391799tagstitleBreaking'
p6034
I1
tp6035
a(S'NewsiconshortTitleBreaking'
p6036
I1
tp6037
a(S'NewsdetailUrlchromecolorbluestateviewdefaultdeferfalsecollapsed0strsresdatamapleplatformmodulep30345848instancep30345848baidp30345848chrome1signature3EKMgFTmnTFMXnF7E0kPcApropsrefHandlercfgmapledalihandlerrefreshidp30345848nstypetodaycontainertrustedtruetypetodaycontainercontentId30345848tagstitleiconshortTitledetailUrlchromecolorbluestateviewdefaultdeferfalsecollapsed0strsresmodspropstrustedtrueidp13872472typefptodaynstypefptodaycontentId13872472tagstitleTodayiconshortTitleTodaydetailUrlchromecolorbluedataTODAYRETAINPKGMARKUPLoading'
p6038
I1
tp6039
a(S'last'
p6040
I2
tp6041
a(S'viewed'
p6042
I1
tp6043
a(S'storytodaypkgpers1todaydelaymouseover100footeranimmodealwaysfooteranimintervalinitial10footeranimintervalsubsequent10footeranimfadeduration04footeranimpreloadpanecount6footeranimtimeoutpanecount1footeranimtransitioncrossfadeinlinevideoenabledfalseinlineLightboxEnabledfalselayoutoverlayanimduration115layoutoverlayanimdelay0broadcastinteractiveeventfalsemoneyballAdEnabledfalsemoneyballAdPkgIdid0000000woeId1132455showdatefalsecokeTestIdgasectdfeai13nReasonid3532268DTeJTcAid3581915DZhuasAid3532256Dce6WMAid3581777DZhuasAid3581897DZhuasAid3581822DZhuasAid3581616DZhuasAid3581837DZhuasAid3581918DZhuasAid3581751DZhuasAid3581896DZhuasAid3581898DZhuasAid3581901DZhuasAid3581902DZhuasAid3581911DZhuasAid3581888DZhuasAid3581903DZhuasAid3581826DZhuasAid3581904DZhuasAid3581905DZhuasAid3581829DZhuasAid3581828DZhuasAid3581906DZhuasAid3581907DZhuasAid3581884DZhuasAid3581910DZhuasAid3581909DZhuasAid3581838DZhuasAid3581913DZhuasAid3581914DZhuasAid3581916DZhuasAid3581857DZhuasAid3581917DZhuasAid3581890DZhuasAid3581889DZhuasAid3581924DZhuasAid3581886DZhuasAid3581893DZhuasAid3581891DZhuasAid3581892DZhuasAid3581895DZhuasAid3581767DZhuasAid3581669DZhuasAmcodetextCount0'
p6044
I1
tp6045
a(S'1storiesid3581915html'
p6046
I1
tp6047
a(S'n'
p6048
I128
tp6049
a(S'n'
p6050
I128
tp6051
a(S'n'
p6052
I128
tp6053
a(S'n'
p6054
I128
tp6055
a(S'n'
p6056
I128
tp6057
a(S'n'
p6058
I128
tp6059
a(S'n'
p6060
I128
tp6061
a(S'France'
p6062
I7
tp6063
a(S'carries'
p6064
I2
tp6065
a(S'out'
p6066
I6
tp6067
a(S'raids'
p6068
I3
tp6069
a(S'names'
p6070
I2
tp6071
a(g1940
I6
tp6072
a(S'more'
p6073
I25
tp6074
a(S'suspectsn'
p6075
I1
tp6076
a(S'n'
p6077
I128
tp6078
a(S'n'
p6079
I128
tp6080
a(S'n'
p6081
I128
tp6082
a(S'French'
p6083
I4
tp6084
a(S'police'
p6085
I3
tp6086
a(S'raided'
p6087
I2
tp6088
a(S'more'
p6089
I25
tp6090
a(S'than'
p6091
I4
tp6092
a(S'150'
p6093
I2
tp6094
a(S'locations'
p6095
I2
tp6096
a(S'overnight'
p6097
I3
tp6098
a(S'authorities'
p6099
I2
tp6100
a(S'identified'
p6101
I2
tp6102
a(S'two'
p6103
I5
tp6104
a(S'more'
p6105
I25
tp6106
a(S'potential'
p6107
I2
tp6108
a(S'suicide'
p6109
I3
tp6110
a(S'bombersnbspn'
p6111
I1
tp6112
a(S'n'
p6113
I128
tp6114
a(S'39We'
p6115
I2
tp6116
a(S'war39nbsp187n'
p6117
I1
tp6118
a(S'n'
p6119
I128
tp6120
a(S'n'
p6121
I128
tp6122
a(S'n'
p6123
I128
tp6124
a(S'n'
p6125
I128
tp6126
a(S'n'
p6127
I128
tp6128
a(S'n'
p6129
I128
tp6130
a(S'nndateclipIdchannelNodeIdbeaconFiredtrueid3581777html'
p6131
I1
tp6132
a(S'n'
p6133
I128
tp6134
a(S'n'
p6135
I128
tp6136
a(S'n'
p6137
I128
tp6138
a(S'n'
p6139
I128
tp6140
a(S'n'
p6141
I128
tp6142
a(S'n'
p6143
I128
tp6144
a(S'n'
p6145
I128
tp6146
a(S'Rival'
p6147
I1
tp6148
a(S'teams'
p6149
I3
tp6150
a(S'come'
p6151
I1
tp6152
a(S'together'
p6153
I2
tp6154
a(S'good'
p6155
I2
tp6156
a(S'causen'
p6157
I1
tp6158
a(S'n'
p6159
I128
tp6160
a(S'n'
p6161
I128
tp6162
a(S'n'
p6163
I128
tp6164
a(S'Christmas'
p6165
I1
tp6166
a(S'comes'
p6167
I1
tp6168
a(S'early'
p6169
I1
tp6170
a(S'an'
p6171
I6
tp6172
a(S'ill'
p6173
I1
tp6174
a(S'5yearold'
p6175
I1
tp6176
a(S'thanks'
p6177
I1
tp6178
a(S'generosity'
p6179
I1
tp6180
a(S'two'
p6181
I5
tp6182
a(S'basketball'
p6183
I1
tp6184
a(S'teams'
p6185
I3
tp6186
a(S'usually'
p6187
I1
tp6188
a(S'don39t'
p6189
I1
tp6190
a(S'get'
p6191
I1
tp6192
a(S'alongnbspn'
p6193
I1
tp6194
a(S'n'
p6195
I128
tp6196
a(S'39Amazing39nbsp187n'
p6197
I1
tp6198
a(S'n'
p6199
I128
tp6200
a(S'n'
p6201
I128
tp6202
a(S'n'
p6203
I128
tp6204
a(S'n'
p6205
I128
tp6206
a(S'n'
p6207
I128
tp6208
a(S'n'
p6209
I128
tp6210
a(S'nndateclipIdchannelNodeIdbeaconFiredfalseid3581897html'
p6211
I1
tp6212
a(S'n'
p6213
I128
tp6214
a(S'n'
p6215
I128
tp6216
a(S'n'
p6217
I128
tp6218
a(S'n'
p6219
I128
tp6220
a(S'n'
p6221
I128
tp6222
a(S'n'
p6223
I128
tp6224
a(S'n'
p6225
I128
tp6226
a(S'Obama'
p6227
I2
tp6228
a(S'praises'
p6229
I1
tp6230
a(S'Mizzou'
p6231
I2
tp6232
a(S'speaking'
p6233
I1
tp6234
a(S'out'
p6235
I6
tp6236
a(S'racismn'
p6237
I1
tp6238
a(S'n'
p6239
I128
tp6240
a(S'n'
p6241
I128
tp6242
a(S'n'
p6243
I128
tp6244
a(S'The'
p6245
I9
tp6246
a(S'president'
p6247
I1
tp6248
a(S'says'
p6249
I2
tp6250
a(S'he'
p6251
I3
tp6252
a(S'talks'
p6253
I1
tp6254
a(S'about'
p6255
I10
tp6256
a(S'racism'
p6257
I1
tp6258
a(S'his'
p6259
I2
tp6260
a(S'two'
p6261
I5
tp6262
a(S'daughters'
p6263
I1
tp6264
a(S'he'
p6265
I3
tp6266
a(S'tells'
p6267
I1
tp6268
a(S'them'
p6269
I1
tp6270
a(S'quotbe'
p6271
I1
tp6272
a(S'firm'
p6273
I1
tp6274
a(S'clearquotnbspn'
p6275
I1
tp6276
a(S'n'
p6277
I128
tp6278
a(S'Shouldn39t'
p6279
I1
tp6280
a(S'accept'
p6281
I1
tp6282
a(S'hatenbsp187n'
p6283
I1
tp6284
a(S'n'
p6285
I128
tp6286
a(S'n'
p6287
I128
tp6288
a(S'n'
p6289
I128
tp6290
a(S'n'
p6291
I128
tp6292
a(S'n'
p6293
I128
tp6294
a(S'n'
p6295
I128
tp6296
a(S'nndateclipIdchannelNodeIdbeaconFiredfalseid3581822html'
p6297
I1
tp6298
a(S'n'
p6299
I128
tp6300
a(S'n'
p6301
I128
tp6302
a(S'n'
p6303
I128
tp6304
a(S'n'
p6305
I128
tp6306
a(S'n'
p6307
I128
tp6308
a(S'n'
p6309
I128
tp6310
a(S'n'
p6311
I128
tp6312
a(S'Sorry'
p6313
I1
tp6314
a(S'Justin'
p6315
I1
tp6316
a(S'Bieber39s'
p6317
I2
tp6318
a(S'new'
p6319
I10
tp6320
a(S'album'
p6321
I2
tp6322
a(S'really'
p6323
I1
tp6324
a(S'goodn'
p6325
I1
tp6326
a(S'n'
p6327
I128
tp6328
a(S'n'
p6329
I128
tp6330
a(S'n'
p6331
I128
tp6332
a(S'Even'
p6333
I1
tp6334
a(S'you'
p6335
I24
tp6336
a(S'hate'
p6337
I1
tp6338
a(S'star39s'
p6339
I1
tp6340
a(S'behavior'
p6341
I4
tp6342
a(S'you39ll'
p6343
I1
tp6344
a(S'find'
p6345
I1
tp6346
a(S'quotPurposequot'
p6347
I1
tp6348
a(S'full'
p6349
I1
tp6350
a(S'addictive'
p6351
I1
tp6352
a(S'pop'
p6353
I1
tp6354
a(S'gemsnbspn'
p6355
I1
tp6356
a(S'n'
p6357
I128
tp6358
a(S'Ridiculously'
p6359
I1
tp6360
a(S'catchynbsp187n'
p6361
I1
tp6362
a(S'n'
p6363
I128
tp6364
a(S'n'
p6365
I128
tp6366
a(S'n'
p6367
I128
tp6368
a(S'n'
p6369
I128
tp6370
a(S'n'
p6371
I128
tp6372
a(S'n'
p6373
I128
tp6374
a(S'nndateclipIdchannelNodeIdbeaconFiredfalseid3581616html'
p6375
I1
tp6376
a(S'n'
p6377
I128
tp6378
a(S'n'
p6379
I128
tp6380
a(S'n'
p6381
I128
tp6382
a(S'n'
p6383
I128
tp6384
a(S'n'
p6385
I128
tp6386
a(S'n'
p6387
I128
tp6388
a(S'n'
p6389
I128
tp6390
a(S'Germproofing'
p6391
I1
tp6392
a(S'tips'
p6393
I2
tp6394
a(S'your'
p6395
I25
tp6396
a(S'home'
p6397
I1
tp6398
a(S'flu'
p6399
I2
tp6400
a(S'seasonn'
p6401
I1
tp6402
a(S'n'
p6403
I128
tp6404
a(S'n'
p6405
I128
tp6406
a(S'n'
p6407
I128
tp6408
a(S'Make'
p6409
I5
tp6410
a(S'your'
p6411
I25
tp6412
a(S'own'
p6413
I1
tp6414
a(S'greatsmelling'
p6415
I1
tp6416
a(S'natural'
p6417
I1
tp6418
a(S'disinfectant'
p6419
I1
tp6420
a(S'spray'
p6421
I1
tp6422
a(S'just'
p6423
I4
tp6424
a(S'three'
p6425
I1
tp6426
a(S'ingredientsnbspn'
p6427
I1
tp6428
a(S'n'
p6429
I128
tp6430
a(S'Mattress'
p6431
I1
tp6432
a(S'advice'
p6433
I1
tp6434
a(S'morenbsp187n'
p6435
I1
tp6436
a(S'n'
p6437
I128
tp6438
a(S'n'
p6439
I128
tp6440
a(S'n'
p6441
I128
tp6442
a(S'n'
p6443
I128
tp6444
a(S'n'
p6445
I128
tp6446
a(S'n'
p6447
I128
tp6448
a(S'nndateclipIdchannelNodeIdbeaconFiredfalsepkgIdsid3581915id3581777id3581897id3581822id3581616id3581837id3581918id3581751id3581896id3581898id3581901id3581902id3581911id3581888id3581903id3581826id3581904id3581905id3581829id3581828id3581906id3581907id3581884id3581910id3581909id3581838id3581913id3581914id3581916id3581857id3581917id3581890id3581889id3581924id3581886id3581893id3581891id3581892id3581895id3581767centerStory0animHtml'
p6449
I1
tp6450
a(S'n'
p6451
I128
tp6452
a(S'Pausen'
p6453
I1
tp6454
a(S'n'
p6455
I128
tp6456
a(S'animPlayBeaconhttpwwwyahoocomanimPauseBeaconhttpwwwyahoocomanimPausedStatefalseanimPlayPlayanimPausePausepaginationtypepackagestateviewdefaultdeferfalsecollapsed0prefsisc0mc0datamapleplatformmodulep30345810instancep30345810baidp30345810chrome1signatureKytcyYmvKqA6dEY6Bqvh3gdropdownHovertruedynamicMax8filterRestoreEnabledtruedropdownFilterfalsetabFiltertrueautoHideEnabledfalserecentFiltersEnabledfalseswipeFilterEnabledfalsedynamicSectionEnabledfalsefilterFontSizefzxspropsrefHandlercfgmapledalihandlerrefreshidp30345810nstypefstreamtrustedtruetypefstreamcontentId30345810tagstitleiconshortTitledetailUrlchromecolorbluestateviewdefaultdeferfalsecollapsed0strsSTRFILTERSFILTERBYFilter'
p6457
I1
tp6458
a(S'byresdatamapleplatformmodulep30345826instancep30345826baidp30345826chrome1signature8RDUWRjp0SpzI5uXatMaYApropsrefHandlercfgmapledalihandlerrefreshidp30345826nstypelogintrustedtruetypelogincontentId30345826tagstitleLoginiconshortTitleLogindetailUrlchromecolorbluestateviewdefaultdeferfalsecollapsed0strsresdatamapleplatformmodulep30345786instancep30345786baidp30345786chrome1signatureRUY7nQ8EnfbCAovFmwfZzgclientPaginationtruewoeId1132455intlussocialEnabledtrueswipeEnabledfalsefbAcctLinkedfalsedynamicEnabledtrueremovalMenuEnabledtrueadsRemoveEnabletruecloseEnabledtruemarkAsReadEnabledtruetooltipsEnabledtruebatchPause0interestFiltersEnabledtrueinterestFiltersBroadcastfalsebroadcastDynamicEnabledfalsesortBy0saveEnabledfalsescrollBuffer900actionDrawerEnabledtruewriteMixerActionstruepageloadListIdplayIconHoverEnabledtruerestoreStateExpire1800000restoreStateMethodHTML5HISTORYbatchSize20videoPlayerJshttpssyimgcomrxbuilds62801445042235videoplayernextgenflashminjsvideoPlayerMaxInstances6videoPlayerAutoPlaytruevideoPlayerPipEnablefalsevideoPlayerPipPositionbottomrightvideoPlayerAdsDelay3videoPlayerQosRate01videoPlayerSectdstrmvideoPlayerSafariHtml5truevideoPlayerStopBufferingtruevideoPlayerStopRelatedtruevideoPlayerTwoControlstruevideoPlayerMutetruebeaconsecapplocbeaconslksopbucketid901useGlApitrueccodegaitemsuf71a1679e12730bb9a84383f691d31a3i4000019130S00008X000u88eb1ab937e73f74ae2ff8c404fc018ci4000013580S00017X000u55099dbb1f7836ccbd563f3e02e6835di4000012900S00017X000u21a920b854cc32e8a5f4d61c6d88e976i4000006070S00001X000u45ff56a7e2b138d482605bbb7be30fdci4000006580S00017X000uc8a5d399674f3421aa85a636850ab249i4000006630S00001X000u9642ada9018133168c65836e9a0f921di4000001430S00002X000uadd65f403bcd3045af848a5c3c58f961i4000001970A100S00004X000ud201800924263786ac01e27282651b22i4000007460S00001X000u87ccf6709e98329e85c18203227a8c2bi4000014950S00008X000ue4c01911360b3ff1b39b7904ba2a5ea6i4000000450S00008X000u4e9b0117bd01385cbc6a1998174511bfi4000016100S00017X000u242ece1e2cc831f48f61c28d11d29584i4000008720S00001X000ua70e74a37f0a31b5b934a34612595d97i4000012600S00017X000u516e1555f10f3e2db9e25804fad8783ci4000015400S00017X000u82c175442f663609951eab7bbf5c08aai4000000790S00008X000u049a6cfc9af436b3a3c77d20f07d0a0ai4000003510S00002X000u6d5603108b0c11e5bf4e0d07c7f1d55fi4000000580A100S00004X000u33dcefb932bb3c5aa49eb90967a8078ai4000008120S00001X000u730867724de935b5823eaf956f952c15i4000007880S00001X000u6737c613f7c1386b876c50d2b8a0c4e7i4000011920S00017X000ubb94c83767de39d59cf167e30f843877i4000012670S00008X000uab9ca2df75e337ddb937c612fe297abdi4000012080S00017X000ufef7e1c35a0f3abc9893a29b1afaa886i4000009250S00001X000ue13801c1e26d317586c1f189564ade3ai4000006670S00001X000ub9343f32bf4b33c6b0c3e1172607adfdi4000001580S00008X000ue018fa00bc693da9889a8359a9d04728i4000005940S00001X000u206f4193233139918e97a540b48fc718i4000006920S00001X000u3617f81a23a4391d85f12e7b9950d88fi4000006450S00001X000ub4a2834ba8f135a4a37412c2fe583b48i4000009470S00001X000ud632157333d43f3892bf52ce8f43e755i4000007620S00008X000utweet42e874728de13c8ea95f9a7f717a6ca7i4000007000S00001X000u73565f4dbda934afb90fd5a41671f501i4000009110S00001X000u4357e0db2a0c38a0b2a5321a01708956i4000000000S00016X000uf0f5bbe5a8f63d54b3d45e6424e56264i4000007910S00001X000udb53effff711355d96d52a359fcfaebbi4000013810S00008X000uf572e29a58293343aa3998ae855e8dc3i4000012210S00017X000u9241ad96af473be1aad83d5389507802i4000006460S00001X000u7b968734ab1836218d9ae94d82f7c43di4000007380S00001X000uebc9524fe0d53c419488adda15305957i4000007970S00017X000uae6984b08a17316aa906eb40237af5abi4000007470S00001X000uacbb46f731fc30d1b19dafcc845d6b33i4000013910S00008X000uebbe0514a7353c5b8da4f577794fe0f9i4000000990A100S00004X000u3a7ab7b0f0663a8ca2b34c950d57cc94i4000000940S00002X000u57b7a963b88139208a289539f7acec61i4000006530S00001X000u4c0150eb0e363acf93e531c9a97b642fi4000011670S00008X000u4cc0465f38f1310587db432edfc16f4ai4000009390S00001X000ub1b7d16c182033aeb2caf38612a44007i4000010560S00001X000u8838ee8542143b4bbbe54dc894245477i4000006250S00001X000uc96ebedd3f87327f8bdd03236680b8d0i4000003660S00002X000ua2d730015ed733939d42398f3b636ee3i4000011450S00008X000u215b7370471b324ea6aecd094db3b41di4000006530S00001X000u55541ea21af5325583efbb24099793bci4000006200S00001X000ua182a46963843d8e9921d00015509391i4000006370S00001X000ub9d04567f9603b83bc405a1ad702674di4000006490S00001X000u2d6eef63b1c43cc1a337fc1db6dd9ab5i4000005740S00008X000u3c354556c6533864b77810e8bb42099ai4000008120S00001X000u96e09bfb8fbc31dda0d553ea3b470ae5i4000006600S00001X000ufdbc081d9cdb37ddad0b63da561ac028i4000006440S00001X000u067b5eeec97e361fa4478664a9da9e25i4000001200A100S00004X000u03c2a457a5913963975803ed7873325ci4000009190S00008X000u81219094852c30b2a3f5197e0e07575ai4000009930S00017X000ua9c4b385d6753feaa043b380de4b4605i4000006220S00001X000uee64d8773a2335ae8ab54044662420e4i4000001180S00002X000u56a9f7935a303c8ba5a96d38b5cc0587i4000011650S00017X000u41cce10d70103951b6ac7c39905488bai4000010740S00008X000u1b0376d0cb9a32cea3340a2760f0c900i4000001670A100S00004X000udc0c08423c4b365f8a3ee24b4089986fi4000006280S00001X000ud2ee0efd381033ea9a6516b781af4365i4000005220S00001X000u733d6ba8ae993ac692c01e32e652df81i4000007090S00001X000u33436c4a943d32c8a58a3226ca568848i4000000650S00008X000ue627e98c902733779d59bb60c4966727i4000000960S00016X000u1ebff6999ec93807add59e93ef94db80i4000014010S00016X000uf630141473a53fda83f72f26b63f8694i4000007630S00001X000ud0ebaa711c003fcd9415cc020d83ce60i4000005480S00001X000u7345a1d20cad376da5a83176362140dbi4000003130S00008X000u7f3943d516bc36e9a30d1448849c18adi4000006020S00001X000u6ca99b3fd9db340ba5d9298504a6a045i4000010760S00001X000ucfdb0c255b2c345ba713d2c2e4e8a63bi4000009740S00001X000u233000c4d0d23eb695069304974f610di4000007010S00001X000ud58a847b58a03625a4c135d216c06e8fi4000010010S00008X000u093599c839e6373fba3d2c6889f54027i4000010560S00017X000u41582a6263b93ef1a87c34031a1ce5f5i4000006310S00001X000u5626df6b124d36eabcf5860e6f516997i4000006630S00001X000uf31716715b8939c498bc9bf04c02ed39i4000007800S00001X000u84a57c76755f393eb711d5fd7c93110bi4000009210S00008X000u6ae5cb1b45693c048e27a8303d91fae2i4000006230S00001X000u923a8a5b254f3413bf29324792d137eci4000001170A100S00004X000u3407e3a042273c7580e496ad191c073ai4000005760S00001X000u2bf0dcbe677a3aec85d9d4a293cfda6ai4000003890S00016X000udeb7f6ba5c7734239a3a0b20053d3ba6i4000007230S00008X000u5f6909730cfd305c80545c8ca8e67b4ei4000009680S00001X000ud2e51e55aced341c84974cd88e12611di4000001930S00002X000u9fff2614e09b3f808cbe6182082fd44fi4000008149S00001X000uade9447d2e193023a9672ff76dd17635i4000006650S00001X000ua2a061f908083d5ca779f1adc862fe89i4000001380S00008X000uc730573c3126398a9641d3818def4a82i4000001240A100S00004X000ucc45a39dde2c341d98513da83777e34ai4000008260S00001X000u5ec9609b5f493b9caf2f760826646333i4000008840S00001X000udda549e381bd3308b87640a0ba9f9a46i4000005460S00001X000u8589339368a03bcaa6e06d079a640c58i4000002670S00008X000ufc339b0b7db23037a06744c4c1a01812i4000011400S00017X000uc8c6ad82f8903a03b53d3d5793593ee6i4000000890S00002X000u2440a7d8c2363b7885970f7ed9d9f803i4000006240S00001X000u4dc37118372c3b9f83d7af11f397fc5ci4000006720S00001X000ud05357cec0493c618f3aef3cc7d15958i4000007370S00008X000u5e64b7e87a1c3539a51ab3b0c482fc42i4000006210S00001X000u0610259a0ce035c4a2fb2f6f364547a1i4000005990S00001X000u3abe8290a6033bd6bac88a99d5517ec1i4000008450S00001X000uf11bbd3aac32321f8bad946c8ad6d70bi4000008250S00001X000ud44fd382fae4310591728b4ca6b86654i4000007060S00008X000u4384624a13ed313e986f69a07433ccc4i4000007250S00008X000u0d147ed28b673f9abda85f53216a04f0i4000004160S00008X000ucad4cd06875c378b8c4de26bd5b4cb2ci4000006770S00008X000uc6bd818ed68d3253902c93aa604dd955i4000019170S00008X000u67b9aafb56e2395980a1c5dbcb8d35f5i4000015200S00008X000u686bb9b626d93abb8de5a16e1eaa42bci4000009940S00008X000uc28bd37d7fff35c7ba3db07bb49fa42ei4000003300S00002X000u2cee9703f14c35e8b6565e9ba7577611i4000006990S00008X000ufab340a8937231ba8bbf63ecd2011416i4000007750S00008X000u49b71b9382013dc28f8d40a8cf026056i4000001490S00008X000u2fb72998a37b388e92fd74200e33993ai4000010840S00008X000u96f3f9deb29f3ced9865da7d810fc0d9i4000009360S00008X000ud2976d53e0053fac8d279e4f84bb804bi4000003380S00008X000ud6df585654703a23bd767363c038b092i4000000690A100S00004X000u65f668c8b26d325ea5a6b4801c19abf5i4000006830S00008X000uaa25afb6f23c3d0a9c1f2e5c411029c5i4000009080S00008X000uea5a67bea3b63eb9a1d50d1c615532f1i4000000590S00008X000u39d9e98be9bb3e20abe745ee8bb5b37ci4000008390S00008X000u034bd96cf03b36858ab84ef2e11d9cd1i4000015580S00008X000u758c514fe69631db9cb888e584f5b609i4000001010S00002X000u71dc93f521da3f6d8feb9c68f4783a45i4000001080A100S00004X000u65ec8fa08be211e5baff4d9d2fd0333di4000000830A100S00004X000u8077eb20d5f83ba383ffc8d0b6fd2fe9i4000001380S00002X000u1520f2a9c46d3b92a80847ff8bded542i4000001260S00002X000u704104781ffe3b41815c33e7bc250189i4000001030S00002X000uc66603c94abe3f3f92ef17c91cc0c76ai4000000620S00002X000u3e634c6baa0a3fab96a2e50734d0717ei4000002670S00002X000ufbf082ce5f963c008ea3b81df39577dfi4000003850S00002X000u03d2e89a800b355c97ca1dbc50387a2ai4000004370S00002X000u3f0003e7fad4351fa74e343b9327785di4000001880A100S00004X000u503a2dfa22293345946c57d3a9c8e81bi4000002250S00002X000u7cf895dbe4c032b990dbefa1bbebe392i4000001770S00002X000u16bedcc9ba3c36129ea5d804326b69abi4000000670S00002X000uf28c49da5bd239378772f48ea9488913i4000001520S00002X000uf97b41ec35f032c3ab17e6f98400656ci4000003240S00002X000u3e31a9ba669836e2bf406923be45f6d8i4000002290S00002X000ufdc1f3b15fa93016beb305513cea351bi4000000810S00002X000contentpos21interestsDataYCT001000714nameAct'
p6459
I1
tp6460
a(S'Of'
p6461
I4
tp6462
a(S'Terrorcount805urldeclared1YCT001000713nameUnrest'
p6463
I1
tp6464
a(S'Conflicts'
p6465
I3
tp6466
a(S'Warcount1621urldeclared1WIKIIDIslamicStateofIraqandtheLevantnameIslamic'
p6467
I1
tp6468
a(S'State'
p6469
I9
tp6470
a(S'Iraq'
p6471
I4
tp6472
a(S'Levantcount776urldeclared1WIKIIDParisnamePariscount0urldeclared1YCT001000069nameCelebritiescount12urldeclared1YCT001000031nameArts'
p6473
I1
tp6474
a(S'Entertainmentcount0urldeclared1WIKIIDAngelinaJolienameAngelina'
p6475
I1
tp6476
a(S'Joliecount35urldeclared1WIKIIDSocialmedianameSocial'
p6477
I1
tp6478
a(S'mediacount297urldeclared1YCT001000001nameSports'
p6479
I1
tp6480
a(S'Recreationcount14urldeclared1WIKIIDUltimateFightingChampionshipnameUltimate'
p6481
I1
tp6482
a(S'Fighting'
p6483
I2
tp6484
a(S'Championshipcount74urldeclared1WIKIIDDonaldTrumpnameDonald'
p6485
I1
tp6486
a(S'Trumpcount725urldeclared1WIKIIDHollyHolmnameHolly'
p6487
I1
tp6488
a(S'Holmcount68urldeclared1WIKIIDYahoo21SportsnameYahoo'
p6489
I1
tp6490
a(S'Sportscount0urldeclared1WIKIIDRondaRouseynameRonda'
p6491
I1
tp6492
a(S'Rouseycount90urldeclared1WIKIIDLadyGaganameLady'
p6493
I1
tp6494
a(S'Gagacount23urldeclared1WIKIIDArielWinternameAriel'
p6495
I1
tp6496
a(S'Wintercount0urldeclared1YCT001000073nameFashioncount0urldeclared1YCT001000661namePoliticscount8urldeclared1WIKIIDSyrianameSyriacount513urldeclared1WIKIIDIraqnameIraqcount182urldeclared1YCT001000780nameSocietycount10urldeclared1YCT001000804nameReligioncount275urldeclared1WIKIIDVaticanCitynameVatican'
p6497
I1
tp6498
a(S'Citycount18urldeclared1WIKIIDPopeBenedictXVInamePope'
p6499
I1
tp6500
a(S'Benedict'
p6501
I1
tp6502
a(S'XVIcount0urldeclared1WIKIIDPopeFrancisnamePope'
p6503
I1
tp6504
a(S'Franciscount43urldeclared1YCT001000638nameEnvironmentcount738urldeclared1YCT001000637nameNaturecount0urldeclared1WIKIIDTheWhiteDeernameThe'
p6505
I1
tp6506
a(S'White'
p6507
I1
tp6508
a(S'Deercount0urldeclared1WIKIIDSenecaArmyDepotnameSeneca'
p6509
I1
tp6510
a(S'Army'
p6511
I2
tp6512
a(S'Depotcount0urldeclared1WIKIIDFallowdeernameFallow'
p6513
I1
tp6514
a(S'deercount0urldeclared1WIKIIDTouristattractionnameTourist'
p6515
I1
tp6516
a(S'attractioncount11urldeclared1WIKIIDTheNatureConservancynameThe'
p6517
I1
tp6518
a(S'Nature'
p6519
I1
tp6520
a(S'Conservancycount0urldeclared1WIKIIDWhitetaileddeernameWhitetailed'
p6521
I1
tp6522
a(S'deercount7urldeclared1WIKIIDTurkeynameTurkeycount207urldeclared1WIKIIDOfficialnameOfficialcount21urldeclared1WIKIIDFrancenameFrancecount0urldeclared1WIKIIDBeleknameBelekcount39urldeclared1WIKIIDMuslimnameMuslimcount20urldeclared1YCT001000002nameFootballcount6urldeclared1WIKIIDNationalFootballLeaguenameNational'
p6523
I1
tp6524
a(S'Football'
p6525
I2
tp6526
a(S'Leaguecount783urldeclared1WIKIIDOdellBeckhamJrnameOdell'
p6527
I1
tp6528
a(S'Beckham'
p6529
I5
tp6530
a(S'Jrcount47urldeclared1YCT001000667nameCrime'
p6531
I1
tp6532
a(S'Justicecount0urldeclared1YCT001000075nameMediacount8urldeclared1WIKIIDDarylDixonnameDaryl'
p6533
I1
tp6534
a(S'Dixoncount13urldeclared1WIKIIDTheWalkingDead28TVseries29nameThe'
p6535
I1
tp6536
a(S'Walking'
p6537
I3
tp6538
a(S'Dead'
p6539
I3
tp6540
a(S'TV'
p6541
I1
tp6542
a(S'seriescount0urldeclared1WIKIIDBurningofWashingtonnameBurning'
p6543
I1
tp6544
a(S'Washingtoncount0urldeclared1YCT001000963nameInternetcount0urldeclared1WIKIIDVladimirPutinnameVladimir'
p6545
I1
tp6546
a(S'Putincount227urldeclared1YCT001000044nameClothes'
p6547
I1
tp6548
a(S'Apparelcount48urldeclared1WIKIIDLaundrynameLaundrycount0urldeclared1YCT001000956nameGame'
p6549
I1
tp6550
a(S'Consolescount52urldeclared1WIKIIDPlayStationNetworknamePlayStation'
p6551
I1
tp6552
a(S'Networkcount12urldeclared1WIKIIDPlayStation4namePlayStation'
p6553
I1
tp6554
a(S'4count54urldeclared1WIKIIDLauraSilvermannameLaura'
p6555
I1
tp6556
a(S'Silvermancount0urldeclared1WIKIIDSimonCowellnameSimon'
p6557
I1
tp6558
a(S'Cowellcount10urldeclared1propsrefHandlercfgmapledalihandlerrefreshidp30345786nstypestreamtrustedtruetypestreamcontentId30345786tagstitleStreamiconshortTitleStreamdetailUrlchromecolorbluestateviewdefaultdeferfalsecollapsed0strsSTRLOADINGLoad'
p6559
I1
tp6560
a(S'more'
p6561
I25
tp6562
a(S'storiesSTRLOADINGCONTENTLoad'
p6563
I1
tp6564
a(S'more'
p6565
I25
tp6566
a(S'storieshellipSTRBUTTONREMOVEDONEDoneSTRREMOVECONFIRMSTRBUTTONWIKIIDnameSTRSHOWLESSShow'
p6567
I1
tp6568
a(S'me'
p6569
I2
tp6570
a(S'fewer'
p6571
I1
tp6572
a(S'stories'
p6573
I6
tp6574
a(S'aboutSTRINTERESTSLIKETEXTMore'
p6575
I1
tp6576
a(S'like'
p6577
I39
tp6578
a(S'thisSTRINTERESTSDISLIKETEXTFewer'
p6579
I1
tp6580
a(S'like'
p6581
I39
tp6582
a(S'thisSTRINTERESTSADSDISLIKETEXTI'
p6583
I1
tp6584
a(S'dont'
p6585
I8
tp6586
a(S'like'
p6587
I39
tp6588
a(S'adSTRINTERESTSREMOVETEXTRemoveSTRINTERESTSFLAGTEXTReport'
p6589
I1
tp6590
a(S'ContentSTRACTIONDRAWERSAVEDCTASignin'
p6591
I1
tp6592
a(S'save'
p6593
I3
tp6594
a(S'story'
p6595
I2
tp6596
a(S'read'
p6597
I1
tp6598
a(S'laterSTRACTIONDRAWERLIKEDCTASignin'
p6599
I1
tp6600
a(S'well'
p6601
I2
tp6602
a(S'show'
p6603
I4
tp6604
a(S'you'
p6605
I24
tp6606
a(S'more'
p6607
I25
tp6608
a(S'like'
p6609
I39
tp6610
a(S'futureSTRACTIONDRAWERDISLIKEDCTASignin'
p6611
I1
tp6612
a(S'well'
p6613
I2
tp6614
a(S'show'
p6615
I4
tp6616
a(S'you'
p6617
I24
tp6618
a(S'less'
p6619
I1
tp6620
a(S'like'
p6621
I39
tp6622
a(S'futureSTRACTIONDRAWERADSDISLIKEDCTAWhy'
p6623
I1
tp6624
a(S'dont'
p6625
I8
tp6626
a(S'you'
p6627
I24
tp6628
a(S'like'
p6629
I39
tp6630
a(S'adSTRACTIONDRAWERADSDISLIKEOPTN1Its'
p6631
I1
tp6632
a(S'offensive'
p6633
I1
tp6634
a(S'meSTRACTIONDRAWERADSDISLIKEOPTN2I'
p6635
I1
tp6636
a(S'keep'
p6637
I1
tp6638
a(S'seeing'
p6639
I2
tp6640
a(S'thisSTRACTIONDRAWERADSDISLIKEOPTN3Its'
p6641
I1
tp6642
a(S'relevant'
p6643
I1
tp6644
a(S'meSTRACTIONDRAWERADSDISLIKEOPTN4Something'
p6645
I1
tp6646
a(S'elseSTRACTIONDRAWERADSDISLIKESOMETHINGELSETell'
p6647
I1
tp6648
a(S'us'
p6649
I9
tp6650
a(S'why'
p6651
I1
tp6652
a(S'you'
p6653
I24
tp6654
a(S'dont'
p6655
I8
tp6656
a(S'like'
p6657
I39
tp6658
a(S'adSTRACTIONDRAWERFLAGGEDCTASignin'
p6659
I1
tp6660
a(S'report'
p6661
I1
tp6662
a(S'contentSTRENTITYLISTDISLIKEDMSGTell'
p6663
I1
tp6664
a(S'us'
p6665
I9
tp6666
a(S'more'
p6667
I25
tp6668
a(S'about'
p6669
I10
tp6670
a(S'what'
p6671
I5
tp6672
a(S'you'
p6673
I24
tp6674
a(S'dislikeSTRTOOLTIPUNDOUndoSTRACTIONDRAWERDONEDoneSTRACTIONDRAWERNOENTITIESLIKEGot'
p6675
I1
tp6676
a(S'Well'
p6677
I1
tp6678
a(S'show'
p6679
I4
tp6680
a(S'you'
p6681
I24
tp6682
a(S'more'
p6683
I25
tp6684
a(S'stories'
p6685
I6
tp6686
a(S'like'
p6687
I39
tp6688
a(S'thisSTRREMOVEITEMTHANKYOUGreat'
p6689
I1
tp6690
a(S'youll'
p6691
I1
tp6692
a(S'see'
p6693
I4
tp6694
a(S'story'
p6695
I2
tp6696
a(S'againStory'
p6697
I1
tp6698
a(S'removedUndoSTRREMOVEADSTHANKYOU'
p6699
I1
tp6700
a(S'Thank'
p6701
I1
tp6702
a(S'you'
p6703
I24
tp6704
a(S'your'
p6705
I25
tp6706
a(S'feedbackWell'
p6707
I2
tp6708
a(S'review'
p6709
I2
tp6710
a(S'make'
p6711
I2
tp6712
a(S'changes'
p6713
I1
tp6714
a(S'neededSTRFLAGITEMTHANKYOUThank'
p6715
I1
tp6716
a(S'you'
p6717
I24
tp6718
a(S'your'
p6719
I25
tp6720
a(S'feedbackWell'
p6721
I2
tp6722
a(S'review'
p6723
I2
tp6724
a(S'your'
p6725
I25
tp6726
a(S'submissionSTRENTITYLISTTEMPLATETell'
p6727
I1
tp6728
a(S'us'
p6729
I9
tp6730
a(S'more'
p6731
I25
tp6732
a(S'about'
p6733
I10
tp6734
a(S'what'
p6735
I5
tp6736
a(S'you'
p6737
I24
tp6738
a(S'likesourceentitiesDoneSTRADSDISLIKETEMPLATEnnncdatann'
p6739
I1
tp6740
a(S'option1n'
p6741
I1
tp6742
a(S'option2n'
p6743
I1
tp6744
a(S'option3n'
p6745
I1
tp6746
a(S'option4n'
p6747
I1
tp6748
a(S'n'
p6749
I128
tp6750
a(S'n'
p6751
I128
tp6752
a(S'somethingqnnnnSTRENTITYITEMTEMPLATEnameSTRSOURCEITEMTEMPLATEStories'
p6753
I1
tp6754
a(S'from'
p6755
I3
tp6756
a(S'nameSTRREMOVEMENUTell'
p6757
I1
tp6758
a(S'us'
p6759
I9
tp6760
a(S'more'
p6761
I25
tp6762
a(S'about'
p6763
I10
tp6764
a(S'what'
p6765
I5
tp6766
a(S'you'
p6767
I24
tp6768
a(S'likesourceentitiesDoneContent'
p6769
I1
tp6770
a(S'preferencesSTRACTIONDRAWERLOGINTEMPLATE'
p6771
I1
tp6772
a(S'Signin'
p6773
I1
tp6774
a(S'we39ll'
p6775
I1
tp6776
a(S'show'
p6777
I4
tp6778
a(S'you'
p6779
I24
tp6780
a(S'more'
p6781
I25
tp6782
a(S'like'
p6783
I39
tp6784
a(S'futureYahoo'
p6785
I1
tp6786
a(S'nresdatamapleplatformmodulep30345988instancep30345988baidp30345988chrome1signaturehsBczS9s5Sqg6iuckrAtAQpropsrefHandlercfgmapledalihandlerrefreshidp30345988nstypeassetcollectortypeassetcollectorcontentId30345988tagstitleiconshortTitledetailUrlchromecolorbluestateviewdefaultdeferfalsecollapsed0strsresrescsswidgetbasecsshttpssyimgcomnnlibmetrogyuiwidgetbasecss381csswidgetstackcsshttpssyimgcomnnlibmetrogyuiwidgetstackcss381cssoverlaycsshttpssyimgcomnnlibmetrogyuioverlaycss381cssbasecsshttpssyimgcomnnlibmetroguibase0011csshelperscsshttpssyimgcomnnlibmetroguihelpers009csstypographycsshttpssyimgcomnnlibmetroguitypography004cssthemedefaultcsshttpssyimgcomnnlibmetrogthemedefaultcommon0040cssthemedefaultdesktopcsshttpssyimgcomnnlibmetrogthemedefaultdesktop00142cssthemehomeruncsshttpssyimgcomnnlibmetrogthemehrblue0017cssmodalservicecsshttpssyimgcomnnlibmetroguipluginsmodalservice004cssiframeshimservicecsshttpssyimgcomnnlibmetroguipluginsiframeshimservice0013cssmenuservicecsshttpssyimgcomnnlibmetroguipluginsmenuservice0115csstabliteservicedesktopcsshttpssyimgcomnnlibmetroguipluginstabliteservicedesktop0018csstablistservicecsshttpssyimgcomnnlibmetroguipluginstablistservice0116csstablistdefaultcsshttpssyimgcomnnlibmetroguipluginstablistdefault0119csstablistserviceverticalcsshttpssyimgcomnnlibmetroguipluginstablistservicevertical003csslwstylecsshttpssyimgcomnnlibmetroguicontriblwstylecss002csstooltipservicecsshttpssyimgcomnnlibmetroguipluginstooltipservice1015csscarouselservicecsshttpssyimgcomnnlibmetroguipluginscarouselservice0122csstypefp500csshttpssyimgcomnnlibmetrogfpfp50000140csstypeuniversalheadercsshttpssyimgcomnnlibmetroguniversalheaderuniversalheader0043csstypeeyebrowpromocsshttpssyimgcomnnlibmetrogeyebrowpromoeyebrowpromo003csstypetabbarcsshttpssyimgcomnnlibmetrogtabbartabbar00164csstypelogincsshttpssyimgcomnnlibmetrogloginlogin0075csstypemailcsshttpssyimgcomnnlibmetrogmailmail0061csstypetrendingnowcsshttpssyimgcomnnlibmetrogtrendingnowtrendingnow0046csstypetrendingnowanimcsshttpssyimgcomnnlibmetrogtrendingnowtrendingnowanim0014csstypeadscsshttpssyimgcomnnlibmetrogsdasda0167csstypenavrailcsshttpssyimgcomnnlibmetrognavrailnavrail00120csstypeadsfallbackcsshttpssyimgcomnnlibmetrogadsfallbackadsfallback0055csstypetrendingnowcarouselcsshttpssyimgcomnnlibmetrogtrendingnowcarouseltrendingnowcarousel0030cssygamescsshttpssyimgcomnnlibmetroggamesgames0025cssdailyfantasycsshttpssyimgcomnnlibmetrogdailyfantasydailyfantasy0012csstypelivenationpromocsshttpssyimgcomnnlibmetroglivenationpromolivenationpromo0016csstypemagpromotecsshttpssyimgcomnnlibmetrogmagpromotemagpromote0022csstypeappscontainerdesktopcsshttpssyimgcomnnlibmetrogappscontainerappscontainerdesktop0058csstypetopheadlinescsshttpssyimgcomnnlibmetrogtopheadlinestopheadlines0020csstypeweathercsshttpssyimgcomnnlibmetrogweatherweather0158csstypelocationcsshttpssyimgcomnnlibmetroglocationlocation0024csstypefinancebasecsshttpssyimgcomnnlibmetrogfinancefinancebase0010csstypefinancecsshttpssyimgcomnnlibmetrogfinancefinance01143csstypesportacularcsshttpssyimgcomnnlibmetrogsportacularsportacular0050csstypeflickrcsshttpssyimgcomnnlibmetrogflickrflickr0020csstypetopvideosbasecsshttpssyimgcomnnlibmetrogtopvideostopvideosbase0012csstypetopvideoscsshttpssyimgcomnnlibmetrogtopvideostopvideos0027csstypehoroscopebasecsshttpssyimgcomnnlibmetroghoroscopehoroscopebase007csstypehoroscopecsshttpssyimgcomnnlibmetroghoroscopehoroscope0192csstypecomicscsshttpssyimgcomnnlibmetrogcomicscomics0021csstypesubfootercsshttpssyimgcomnnlibmetrogfootersubfooter0038csstypewindowshadecsshttpssyimgcomnnlibmetrogwindowshadewindowshade0017csstypetodaycontainercsshttpssyimgcomnnlibmetrogtodaycontainertodaycontainer0021csstypefptodayflexcsshttpssyimgcomnnlibmetrogfptodayfptodayflex01102csstypeoffleadcsshttpssyimgcomnnlibmetrogoffleadofflead0031csstypeliveventcsshttpssyimgcomnnlibmetrogliveventlivevent0016csstypefstreamdesktopcsshttpssyimgcomnnlibmetrogfstreamfstreamdesktop0033csstypestreamcsshttpssyimgcomnnlibmetrogstreamstream00315cssrmxadscsshttpssyimgcomnnlibmetrogstreamrmxads0024cssstreamtweetscsshttpssyimgcomnnlibmetrogstreamstreamtweets0032cssstreamactiondrawerdesktopcsshttpssyimgcomnnlibmetrogstreamstreamactiondrawerdesktop0031cssstreamvideomanagercsshttpssyimgcomnnlibmetrogstreamvideomanager008csstypemastheadhomeruncsshttpssyimgcomnnlibmetrogmastheadmastheadhomerun0097csstypemastheadsaytcsshttpssyimgcomnnlibmetrogmastheadmastheadsayt0024cssjsyuihttpssyimgcomnnlibmetrogyuiyuibase384jsrapidhttpssyimgcomnnlibmetroguicontribrapid2913jsoophttpssyimgcomnnlibmetrogyuioop383jseventcustombasehttpssyimgcomnnlibmetrogyuieventcustombase383jseventbasehttpssyimgcomnnlibmetrogyuieventbase383jsiobasehttpssyimgcomnnlibmetrogyuiiobase383jsjsonparsehttpssyimgcomnnlibmetrogyuijsonparse383jsjsonstringifyhttpssyimgcomnnlibmetrogyuijsonstringify383jscookiehttpssyimgcomnnlibmetrogyuicookie383jsdomcorehttpssyimgcomnnlibmetrogyuidomcore383jsdombasehttpssyimgcomnnlibmetrogyuidombase383jsdomstylehttpssyimgcomnnlibmetrogyuidomstyle383jsdomscreenhttpssyimgcomnnlibmetrogyuidomscreen383jsselectornativehttpssyimgcomnnlibmetrogyuiselectornative383jsselectorhttpssyimgcomnnlibmetrogyuiselector383jsnodecorehttpssyimgcomnnlibmetrogyuinodecore383jsnodebasehttpssyimgcomnnlibmetrogyuinodebase383jseventdelegatehttpssyimgcomnnlibmetrogyuieventdelegate383jsnodeeventdelegatehttpssyimgcomnnlibmetrogyuinodeeventdelegate383jspluginhostbasehttpssyimgcomnnlibmetrogyuipluginhostbase383jspluginhostconfighttpssyimgcomnnlibmetrogyuipluginhostconfig383jsnodepluginhosthttpssyimgcomnnlibmetrogyuinodepluginhost383jsnodescreenhttpssyimgcomnnlibmetrogyuinodescreen383jsnodestylehttpssyimgcomnnlibmetrogyuinodestyle383jsattributecorehttpssyimgcomnnlibmetrogyuiattributecore383jsbasecorehttpssyimgcomnnlibmetrogyuibasecore383jseventcustomcomplexhttpssyimgcomnnlibmetrogyuieventcustomcomplex383jsattributeobservablehttpssyimgcomnnlibmetrogyuiattributeobservable383jsattributeextrashttpssyimgcomnnlibmetrogyuiattributeextras383jsattributebasehttpssyimgcomnnlibmetrogyuiattributebase383jsbaseobservablehttpssyimgcomnnlibmetrogyuibaseobservable383jsbasebasehttpssyimgcomnnlibmetrogyuibasebase383jsjsonphttpssyimgcomnnlibmetrogyuijsonp383jstransitionhttpssyimgcomnnlibmetrogyuitransition384jseventsynthetichttpssyimgcomnnlibmetrogyuieventsynthetic383jseventfocushttpssyimgcomnnlibmetrogyuieventfocus383jsbasebuildhttpssyimgcomnnlibmetrogyuibasebuild383jsloaderbasehttpssyimgcomnnlibmetrogyuiloaderbase383jsloaderyui3httpssyimgcomnnlibmetrogyuiloaderyui3383jsnodedeprecatedhttpssyimgcomnnlibmetrogyuinodedeprecated383jsgallerystoragelitehttpssyimgcomnnlibmetrogyuigallerystoragelite383jsselectorcss2httpssyimgcomnnlibmetrogyuiselectorcss2383jsselectorcss3httpssyimgcomnnlibmetrogyuiselectorcss3383jseventresizehttpssyimgcomnnlibmetrogyuieventresize383jspluginhttpssyimgcomnnlibmetrogyuiplugin383jsnodescrollinfohttpssyimgcomnnlibmetrogyuinodescrollinfo383jsmoduleplatformhttpssyimgcomnnlibmetroguicontribdalimoduleplatform1119jsresourcemgrhttpssyimgcomnnlibmetroguicontribdaliresourcemgr1118jstransporthttpssyimgcomnnlibmetroguicontribdalidalitransport1136jsmetroexthttpssyimgcomnnlibmetroguicontribdalimetrodali1029jsmoduleapihttpssyimgcomnnlibmetroguicontribdalimoduleapi1118jsyuiservicehttpssyimgcomnnlibmetroguicontribdaliyuiservice0121jsmetroviewtypehttpssyimgcomnnlibmetroguipluginsmetroviewtype0126jsdefaultviewtypehttpssyimgcomnnlibmetroguipluginsdefaultviewtype0165jseditviewtypehttpssyimgcomnnlibmetroguipluginseditviewtype0144jsylchttpssyimgcomnnlibmetroguicontribylc1824jsinstrumentationservicehttpssyimgcomnnlibmetroguipluginsinstrumentationservice01124jsmetrologgerservicehttpssyimgcomnnlibmetroguipluginsmetrologgerservice0122jsautohideservicehttpssyimgcomnnlibmetroguipluginsautohideservice0119jssethomepageservicehttpssyimgcomnnlibmetroguipluginssethomepageservice0038jslazyimagehttpssyimgcomnnlibmetroguipluginslazyimage0014jsstickypositionhttpssyimgcomnnlibmetroguipluginsstickypositionservice0016jsuserinfoservicehttpssyimgcomnnlibmetroguipluginsuserinfoservice0119jsstatemgrservicehttpssyimgcomnnlibmetroguipluginsstatemgrservice0123jsmodalservicehttpssyimgcomnnlibmetroguipluginsmodalservice008jsariaservicehttpssyimgcomnnlibmetroguipluginsariaservice0120jsiframeshimservicehttpssyimgcomnnlibmetroguipluginsiframeshimservice0022jsmenuservicehttpssyimgcomnnlibmetroguipluginsmenuservice0125jsarcadetransporthttpssyimgcomnnlibmetroguipluginsarcadetransport1018jstabliteservicehttpssyimgcomnnlibmetroguipluginstabliteservice0012jstablistservicehttpssyimgcomnnlibmetroguipluginstablistservice0147jstooltipservicehttpssyimgcomnnlibmetroguipluginstooltipservice0159jscarouselservicehttpssyimgcomnnlibmetroguipluginscarouselservice0164jstypefphttpssyimgcomnnlibmetrogfpfp01170jstypeuniversalheaderhttpssyimgcomnnlibmetroguniversalheaderuniversalheader0026jstypetabbarhttpssyimgcomnnlibmetrogtabbartabbar0042jstransporthelperservicehttpssyimgcomnnlibmetroguipluginstransporthelperservice005jsloginservicehttpssyimgcomnnlibmetroguipluginsloginservice0052jstypetuchttpssyimgcomnnlibmetrogtuctuc00109jstypeloginhttpssyimgcomnnlibmetrogloginlogin0039jstypemailhttpssyimgcomnnlibmetrogmailmail0050jstypetrendingnowhttpssyimgcomnnlibmetrogtrendingnowtrendingnow0028jstypeadshttpssyimgcomnnlibmetrogsdasda0170jstypenavrailhttpssyimgcomnnlibmetrognavrailnavrail0076jstypeadsfallbackjshttpssyimgcomnnlibmetrogadsfallbackadsfallback0044jstypetrendingnowcarouselhttpssyimgcomnnlibmetrogtrendingnowcarouseltrendingnowcarousel0021jsygamesjshttpssyimgcomnnlibmetroggamesgames003jsdailyfantasyjshttpssyimgcomnnlibmetrogdailyfantasydailyfantasy0015jstypeappscontainerhttpssyimgcomnnlibmetrogappscontainerappscontainer0037jstypetopheadlineshttpssyimgcomnnlibmetrogtopheadlinestopheadlines0015jstypeweatherhttpssyimgcomnnlibmetrogweatherweather0142jstypefinancehttpssyimgcomnnlibmetrogfinancefinance01140jstypesportacularhttpssyimgcomnnlibmetrogsportacularsportacular0040jstypeflickrhttpssyimgcomnnlibmetrogflickrflickr0016jstypetopvideoshttpssyimgcomnnlibmetrogtopvideostopvideos0017jstypehoroscopehttpssyimgcomnnlibmetroghoroscopehoroscope0152jstypecomicshttpssyimgcomnnlibmetrogcomicscomics0024jstypewindowshadehttpssyimgcomnnlibmetrogwindowshadewindowshade0019jstypetodaycontainerhttpssyimgcomnnlibmetrogtodaycontainertodaycontainer0021jstypefptodayhoverhttpssyimgcomnnlibmetrogfptodayfptodayhover1553jstypeoffleadjshttpssyimgcomnnlibmetrogoffleadofflead0032jstypeliveventhttpssyimgcomnnlibmetrogliveventlivevent0013jsstorageservicehttpssyimgcomnnlibmetroguipluginsstorageservice003jstypefstreamhttpssyimgcomnnlibmetrogfstreamfstream00119jstypestreamhttpssyimgcomnnlibmetrogstreamstream00536jsinterestsservicehttpssyimgcomnnlibmetroguipluginsinterestsservice013jsstreamactiondrawerhttpssyimgcomnnlibmetrogstreamstreamactiondrawer0055jsstreamvideomanagerhttpssyimgcomnnlibmetrogstreamvideomanager0058jstypemastheadhttpssyimgcomnnlibmetrogmastheadmasthead02313js'
p6787
I1
tp6788
a(S'YUInamespaceEnvAfsettingscomet'
p6789
I1
tp6790
a(S'subscribeTimeout'
p6791
I1
tp6792
a(S'5000'
p6793
I2
tp6794
a(S'subscribeMaxTries'
p6795
I1
tp6796
a(S'1'
p6797
I42
tp6798
a(S'trackInitComet'
p6799
I1
tp6800
a(S'1'
p6801
I42
tp6802
a(S'privateCometHost'
p6803
I1
tp6804
a(S'httpsprcometyahoocomcomet'
p6805
I1
tp6806
a(S'publicCometHost'
p6807
I1
tp6808
a(S'httpscometyahoocomcomet'
p6809
I1
tp6810
a(S'shutdown'
p6811
I1
tp6812
a(S'0'
p6813
I54
tp6814
a(S'trackShutdown'
p6815
I1
tp6816
a(g143
I54
tp6817
a(S'YUIEnvAfsettingsbeacon'
p6818
I1
tp6819
a(S'sampleSize'
p6820
I1
tp6821
a(S'500'
p6822
I3
tp6823
a(S'pathPrefix'
p6824
I1
tp6825
a(S'tdapibeacon'
p6826
I1
tp6827
a(S'YUIEnvAfsettingspipe'
p6828
I1
tp6829
a(S'msgthrottle'
p6830
I1
tp6831
a(S'2000'
p6832
I1
tp6833
a(S'YUIEnvAfsettingscontext'
p6834
I1
tp6835
a(S'rid'
p6836
I1
tp6837
a(S'7enarfpb4jom7'
p6838
I2
tp6839
a(S'bucket'
p6840
I1
tp6841
a(S'901'
p6842
I2
tp6843
a(S'function'
p6844
I12
tp6845
a(S'YUIaddmetroconfig'
p6846
I1
tp6847
a(S'functionY'
p6848
I2
tp6849
a(S'until'
p6850
I1
tp6851
a(S'dali'
p6852
I1
tp6853
a(S'defaults'
p6854
I1
tp6855
a(S'YmixYdaliconfigprops'
p6856
I1
tp6857
a(S'intl'
p6858
I2
tp6859
a(S'us'
p6860
I9
tp6861
a(S'lang'
p6862
I2
tp6863
a(S'enUS'
p6864
I2
tp6865
a(S'libRoot'
p6866
I1
tp6867
a(S'requestUrl'
p6868
I1
tp6869
a(S'hjs'
p6870
I1
tp6871
a(S'requestUrlLite'
p6872
I1
tp6873
a(S'hjsal'
p6874
I1
tp6875
a(S'jsErrorUrl'
p6876
I1
tp6877
a(S'hjserror'
p6878
I1
tp6879
a(S'comboRoot'
p6880
I1
tp6881
a(S'httpssyimgcomzzcombo'
p6882
I3
tp6883
a(S'user'
p6884
I1
tp6885
a(S'userLocation'
p6886
I1
tp6887
a(S'woeid1132455zipCheonancityCheonanstateChungcheongnamDocountrySouth'
p6888
I1
tp6889
a(S'KoreacountryCodeKRccKRlat36791431lon127220458locIdsctimezoneAsiaSeouladdrCheonan'
p6890
I1
tp6891
a(S'ChungcheongnamDo'
p6892
I1
tp6893
a(S'South'
p6894
I5
tp6895
a(S'KoreadmaWoeidfalsedmaName'
p6896
I1
tp6897
a(S'userRecognized'
p6898
I1
tp6899
a(S'0'
p6900
I54
tp6901
a(S'ultSpaceId'
p6902
I1
tp6903
a(S'2023538075'
p6904
I5
tp6905
a(S'ultBeaconHost'
p6906
I1
tp6907
a(S'pgif'
p6908
I1
tp6909
a(S'ultBeaconTimeout'
p6910
I1
tp6911
a(S'0'
p6912
I54
tp6913
a(S'ylp'
p6914
I1
tp6915
a(S'modChromeHtml'
p6916
I1
tp6917
a(S'html'
p6918
I4
tp6919
a(S'n'
p6920
I128
tp6921
a(S'modErrorHtml'
p6922
I1
tp6923
a(S'n'
p6924
I128
tp6925
a(S'n'
p6926
I128
tp6927
a(S'name'
p6928
I1
tp6929
a(S'encountered'
p6930
I3
tp6931
a(S'problem'
p6932
I3
tp6933
a(S'while'
p6934
I4
tp6935
a(S'trying'
p6936
I3
tp6937
a(S'loadn'
p6938
I3
tp6939
a(S'messagen'
p6940
I1
tp6941
a(S'Or'
p6942
I1
tp6943
a(S'visit'
p6944
I1
tp6945
a(S'urln'
p6946
I1
tp6947
a(S'crumbErrorHtml'
p6948
I1
tp6949
a(S'n'
p6950
I128
tp6951
a(S'n'
p6952
I128
tp6953
a(S'The'
p6954
I9
tp6955
a(S'module'
p6956
I3
tp6957
a(S'encountered'
p6958
I3
tp6959
a(S'problem'
p6960
I3
tp6961
a(S'while'
p6962
I4
tp6963
a(S'trying'
p6964
I3
tp6965
a(S'loadn'
p6966
I3
tp6967
a(S'2048n'
p6968
I1
tp6969
a(S'n'
p6970
I128
tp6971
a(S'cookieErrorHtml'
p6972
I1
tp6973
a(S'n'
p6974
I128
tp6975
a(S'n'
p6976
I128
tp6977
a(S'The'
p6978
I9
tp6979
a(S'module'
p6980
I3
tp6981
a(S'encountered'
p6982
I3
tp6983
a(S'problem'
p6984
I3
tp6985
a(S'while'
p6986
I4
tp6987
a(S'trying'
p6988
I3
tp6989
a(S'loadn'
p6990
I3
tp6991
a(S'16384n'
p6992
I1
tp6993
a(S'n'
p6994
I128
tp6995
a(S'cookieDomain'
p6996
I1
tp6997
a(S'wwwyahoocom'
p6998
I2
tp6999
a(S'proxyTimeout'
p7000
I1
tp7001
a(S'15000'
p7002
I2
tp7003
a(S'errorDetails'
p7004
I1
tp7005
a(S'0'
p7006
I54
tp7007
a(S'sdaRequestUrl'
p7008
I1
tp7009
a(S'sda2'
p7010
I1
tp7011
a(S'sdaRefreshEnabled'
p7012
I1
tp7013
a(S'0'
p7014
I54
tp7015
a(S'sdaRefreshTimeout'
p7016
I1
tp7017
a(S'15000'
p7018
I2
tp7019
a(S'flashminversions'
p7020
I1
tp7021
a(S'9026010042'
p7022
I1
tp7023
a(S'flashupgradeurl'
p7024
I1
tp7025
a(S'httpgetadobecomflashplayer'
p7026
I1
tp7027
a(S'uitabchange'
p7028
I1
tp7029
a(S'uicarouselanimate'
p7030
I1
tp7031
a(S'1'
p7032
I42
tp7033
a(S'uilocdropyqlhost'
p7034
I1
tp7035
a(S'uslocdropqueryyahoocom'
p7036
I1
tp7037
a(S'uilocdroptimeout'
p7038
I1
tp7039
a(S'5000'
p7040
I2
tp7041
a(S'locDetectWriteEnabled'
p7042
I1
tp7043
a(S'0'
p7044
I54
tp7045
a(S'ywarapidenabled'
p7046
I1
tp7047
a(S'1'
p7048
I42
tp7049
a(S'ywarapidsamplingenabled'
p7050
I1
tp7051
a(S'0'
p7052
I54
tp7053
a(S'ywarapidsamplingrange'
p7054
I1
tp7055
a(S'1000'
p7056
I3
tp7057
a(S'ywarapidspaceid'
p7058
I1
tp7059
a(S'2023538075'
p7060
I5
tp7061
a(S'ywarapidprojectid'
p7062
I1
tp7063
a(S'10001806365479'
p7064
I1
tp7065
a(S'ywarapidenabledmodules'
p7066
I1
tp7067
a(S'ywarapidbucketid'
p7068
I1
tp7069
a(S'901'
p7070
I2
tp7071
a(S'ywarapidhost'
p7072
I1
tp7073
a(S'yanalyticsyahoocom'
p7074
I1
tp7075
a(S'ywarapidrichviewenabled'
p7076
I1
tp7077
a(S'0'
p7078
I54
tp7079
a(S'ywarapidworkerpath'
p7080
I1
tp7081
a(S'libmetroguicontribrapidworkerv12100js'
p7082
I1
tp7083
a(S'ywarapidultenabled'
p7084
I1
tp7085
a(S'1'
p7086
I42
tp7087
a(S'rapidyqlpath'
p7088
I1
tp7089
a(S'ywarapidyqlhost'
p7090
I1
tp7091
a(S'rapidinitbeacon'
p7092
I1
tp7093
a(S'0'
p7094
I54
tp7095
a(S'rapidrightclick'
p7096
I1
tp7097
a(S'0'
p7098
I54
tp7099
a(S'ywapageviewoninit'
p7100
I1
tp7101
a(S'0'
p7102
I54
tp7103
a(S'rapidaddpageview'
p7104
I1
tp7105
a(S'1'
p7106
I42
tp7107
a(S'rapidcustomperfbeacon0rapidperfnavigationtime'
p7108
I1
tp7109
a(S'2'
p7110
I6
tp7111
a(S'rapidclientonly'
p7112
I1
tp7113
a(S'0'
p7114
I54
tp7115
a(S'cscLogEnabled'
p7116
I1
tp7117
a(S'0'
p7118
I54
tp7119
a(S'cscLogCSCHost'
p7120
I1
tp7121
a(S'usbcyahoocom'
p7122
I1
tp7123
a(S'requestId'
p7124
I1
tp7125
a(S'7enarfpb4jom7'
p7126
I2
tp7127
a(S'colo'
p7128
I1
tp7129
a(S'ne1'
p7130
I1
tp7131
a(S'cometdUrl'
p7132
I1
tp7133
a(S'passthru'
p7134
I1
tp7135
a(S'stickyrailsenabled'
p7136
I1
tp7137
a(S'0'
p7138
I54
tp7139
a(S'pgmode'
p7140
I1
tp7141
a(S'yepoverlayenabled'
p7142
I1
tp7143
a(S'1'
p7144
I42
tp7145
a(S'yqlhost'
p7146
I1
tp7147
a(S'mediaqueryyahoocom'
p7148
I1
tp7149
a(S'yqlstore'
p7150
I1
tp7151
a(S'storeMYyImKujO2xYkM4BamQHsE'
p7152
I1
tp7153
a(S'yqlpath'
p7154
I1
tp7155
a(S'v1consoleyql'
p7156
I1
tp7157
a(S'yqlpublicpath'
p7158
I1
tp7159
a(S'v1publicyql'
p7160
I1
tp7161
a(S'yqlenv'
p7162
I1
tp7163
a(S'prod'
p7164
I1
tp7165
a(S'yqlcrumb'
p7166
I1
tp7167
a(S'credstorespid'
p7168
I1
tp7169
a(S'b9ed13ccddec11de9c83001b784d35e1'
p7170
I1
tp7171
a(S'devicetype'
p7172
I1
tp7173
a(S'desktop'
p7174
I1
tp7175
a(S'loginfburl'
p7176
I1
tp7177
a(S'httpsloginyahoocomconfigloginsrcfpctxintlusdonehttps3A2F2Fwwwyahoocom2F'
p7178
I1
tp7179
a(S'fbauthstate'
p7180
I1
tp7181
a(S'0'
p7182
I54
tp7183
a(S'err404'
p7184
I1
tp7185
a(S'0'
p7186
I54
tp7187
a(S'errurl'
p7188
I1
tp7189
a(S'0'
p7190
I54
tp7191
a(S'hps'
p7192
I1
tp7193
a(S'0'
p7194
I54
tp7195
a(S'tsrc'
p7196
I1
tp7197
a(S'filtersbarenable'
p7198
I1
tp7199
a(S'1'
p7200
I42
tp7201
a(S'inlinevideoenabled'
p7202
I1
tp7203
a(S'1'
p7204
I42
tp7205
a(S'yepmarkup'
p7206
I1
tp7207
a(S'n'
p7208
I128
tp7209
a(S'n'
p7210
I128
tp7211
a(S'n'
p7212
I128
tp7213
a(S'n'
p7214
I128
tp7215
a(S'n'
p7216
I128
tp7217
a(S'Close'
p7218
I2
tp7219
a(S'Videon'
p7220
I2
tp7221
a(S'n'
p7222
I128
tp7223
a(S'n'
p7224
I128
tp7225
a(S'n'
p7226
I128
tp7227
a(S'View'
p7228
I2
tp7229
a(S'Originaln'
p7230
I1
tp7231
a(S'n'
p7232
I128
tp7233
a(S'n'
p7234
I128
tp7235
a(S'n'
p7236
I128
tp7237
a(S'n'
p7238
I128
tp7239
a(S'n'
p7240
I128
tp7241
a(S'n'
p7242
I128
tp7243
a(S'n'
p7244
I128
tp7245
a(S'Play'
p7246
I2
tp7247
a(S'Videon'
p7248
I2
tp7249
a(S'n'
p7250
I128
tp7251
a(S'n'
p7252
I128
tp7253
a(S'yepplayer'
p7254
I1
tp7255
a(S'httpssyimgcomrxbuilds43101402776928enusvideoplayerminjs'
p7256
I1
tp7257
a(S'inlinevideoadsenabled'
p7258
I1
tp7259
a(S'0'
p7260
I54
tp7261
a(S'inlinevideoadsrotationtype'
p7262
I1
tp7263
a(S'0'
p7264
I54
tp7265
a(S'addthisbeacon'
p7266
I1
tp7267
a(S'defaultserverurl'
p7268
I1
tp7269
a(S'httpswwwyahoocom'
p7270
I1
tp7271
a(S'todayoffscreenautoplaydisabled'
p7272
I1
tp7273
a(S'0'
p7274
I54
tp7275
a(S'todayoffscreenamount'
p7276
I1
tp7277
a(S'395'
p7278
I1
tp7279
a(S'trendingnowoffscreenenabled'
p7280
I1
tp7281
a(S'1'
p7282
I42
tp7283
a(S'loccookiepersistent'
p7284
I1
tp7285
a(S'0'
p7286
I54
tp7287
a(S'moneyballoffscreenautoplaydisabled'
p7288
I1
tp7289
a(S'0'
p7290
I54
tp7291
a(S'moneyballoffscreenamount'
p7292
I1
tp7293
a(S'450'
p7294
I1
tp7295
a(S'custombeaconendpoint'
p7296
I1
tp7297
a(S'hack'
p7298
I1
tp7299
a(S'since'
p7300
I2
tp7301
a(S'FP'
p7302
I2
tp7303
a(S'requires'
p7304
I28
tp7305
a(S'containing'
p7306
I1
tp7307
a(S'FP'
p7308
I2
tp7309
a(S'module'
p7310
I3
tp7311
a(S'Ydaliconfigmods'
p7312
I2
tp7313
a(S'props'
p7314
I1
tp7315
a(S'trusted'
p7316
I1
tp7317
a(S'true'
p7318
I11
tp7319
a(S'id'
p7320
I5
tp7321
a(S'fp'
p7322
I2
tp7323
a(S'type'
p7324
I1
tp7325
a(S'fp'
p7326
I2
tp7327
a(S'ns'
p7328
I1
tp7329
a(S'typefp'
p7330
I1
tp7331
a(S'strs'
p7332
I1
tp7333
a(S'need'
p7334
I2
tp7335
a(S'translate'
p7336
I1
tp7337
a(S'STRMODULEERRORFALLBACKTEXT'
p7338
I1
tp7339
a(S'Content'
p7340
I1
tp7341
a(S'currently'
p7342
I1
tp7343
a(S'unavailable'
p7344
I1
tp7345
a(S'Were'
p7346
I2
tp7347
a(S'working'
p7348
I1
tp7349
a(S'so'
p7350
I3
tp7351
a(S'please'
p7352
I1
tp7353
a(S'check'
p7354
I1
tp7355
a(S'back'
p7356
I3
tp7357
a(S'soon'
p7358
I1
tp7359
a(S'state'
p7360
I1
tp7361
a(S'view'
p7362
I4
tp7363
a(S'default'
p7364
I1
tp7365
a(S'mods'
p7366
I1
tp7367
a(S'Ydaliconfigmods'
p7368
I2
tp7369
a(S'data'
p7370
I1
tp7371
a(S'deferredRes'
p7372
I1
tp7373
a(S'deferredResDelay'
p7374
I1
tp7375
a(S'500'
p7376
I3
tp7377
a(S'forceIpLocation'
p7378
I1
tp7379
a(S'0'
p7380
I54
tp7381
a(S'ilc'
p7382
I1
tp7383
a(S'ipv6'
p7384
I1
tp7385
a(S'0'
p7386
I54
tp7387
a(S'fixedMastheadEnabled'
p7388
I1
tp7389
a(S'1'
p7390
I42
tp7391
a(S'locDetectEnabled'
p7392
I1
tp7393
a(S'0'
p7394
I54
tp7395
a(S'locDenialAlertInterval'
p7396
I1
tp7397
a(S'0'
p7398
I54
tp7399
a(S'locDenialAlertMessage'
p7400
I1
tp7401
a(S'lastDetectedLocExp'
p7402
I1
tp7403
a(S'0'
p7404
I54
tp7405
a(S'locdropCrumb'
p7406
I1
tp7407
a(S'isRecognizedState'
p7408
I1
tp7409
a(S'0'
p7410
I54
tp7411
a(S'inlineLightboxEnabled'
p7412
I1
tp7413
a(S'1'
p7414
I42
tp7415
a(S'searchScrollHide'
p7416
I1
tp7417
a(S'1'
p7418
I42
tp7419
a(S'searchAutoHide'
p7420
I1
tp7421
a(S'1'
p7422
I42
tp7423
a(S'searchBackToTopEnabled'
p7424
I1
tp7425
a(S'0'
p7426
I54
tp7427
a(S'searchAssistTabletEnabled'
p7428
I1
tp7429
a(S'0'
p7430
I54
tp7431
a(S'searchGreyiconEnabled'
p7432
I1
tp7433
a(S'1'
p7434
I42
tp7435
a(S'searchHiddeniconEnabled'
p7436
I1
tp7437
a(S'0'
p7438
I54
tp7439
a(S'positionSearchBarTopOnFocusEnabled0'
p7440
I1
tp7441
a(S'iosDefaultSearchSetEnabled'
p7442
I1
tp7443
a(S'0'
p7444
I54
tp7445
a(S'iosDefaultSearchSetFreq'
p7446
I1
tp7447
a(S'30'
p7448
I1
tp7449
a(S'iosTabletSearchSetEnabled'
p7450
I1
tp7451
a(S'0'
p7452
I54
tp7453
a(S'iosTabletCrumb'
p7454
I1
tp7455
a(S'safariSearchSetEnabled'
p7456
I2
tp7457
a(S'0'
p7458
I54
tp7459
a(S'safariSearchSetEnabled'
p7460
I2
tp7461
a(S'0'
p7462
I54
tp7463
a(S'desktopCrumb'
p7464
I1
tp7465
a(S'spaceid'
p7466
I1
tp7467
a(S'2023538075'
p7468
I5
tp7469
a(S'intl'
p7470
I2
tp7471
a(S'us'
p7472
I9
tp7473
a(S'lang'
p7474
I2
tp7475
a(S'enUS'
p7476
I2
tp7477
a(S'searchAssistArrowEnabled'
p7478
I1
tp7479
a(g143
I54
tp7480
a(S'var'
p7481
I30
tp7482
a(S'moduleList'
p7483
I3
tp7484
a(S'var'
p7485
I30
tp7486
a(S'moduleList'
p7487
I3
tp7488
a(S'YUIpresentationpostLoad'
p7489
I2
tp7490
a(S'postLoadConf'
p7491
I2
tp7492
a(S'arcade'
p7493
I1
tp7494
a(S'combine'
p7495
I2
tp7496
a(S'1'
p7497
I42
tp7498
a(S'comboBase'
p7499
I2
tp7500
a(S'httpssyimgcomzzcombo'
p7501
I3
tp7502
a(S'root'
p7503
I2
tp7504
a(S'modules'
p7505
I1
tp7506
a(S'moduleList'
p7507
I3
tp7508
a(S'Make'
p7509
I5
tp7510
a(S'combo'
p7511
I1
tp7512
a(S'settings'
p7513
I1
tp7514
a(S'configurable'
p7515
I2
tp7516
a(S'dependent'
p7517
I1
tp7518
a(S'dev'
p7519
I1
tp7520
a(S'env'
p7521
I1
tp7522
a(S'var'
p7523
I30
tp7524
a(S'Y'
p7525
I2
tp7526
a(S'YUIgroups'
p7527
I1
tp7528
a(S'postLoadConf'
p7529
I2
tp7530
a(S'bootstrap'
p7531
I1
tp7532
a(S'true'
p7533
I11
tp7534
a(S'root'
p7535
I2
tp7536
a(S'yui'
p7537
I1
tp7538
a(S'YUIversion'
p7539
I1
tp7540
a(S'comboBase'
p7541
I2
tp7542
a(S'httpssyimgcomzzcombo'
p7543
I3
tp7544
a(S'combine'
p7545
I2
tp7546
a(S'true'
p7547
I11
tp7548
a(S'useBrowserConsole'
p7549
I1
tp7550
a(S'false'
p7551
I4
tp7552
a(S'use'
p7553
I2
tp7554
a(S'Ydaliconfigdebugfalse'
p7555
I1
tp7556
a(S'YconfigcacheUse'
p7557
I1
tp7558
a(S'false'
p7559
I4
tp7560
a(S'setTimeoutfunction'
p7561
I4
tp7562
a(S'YGetscriptYUIpresentationlazyScriptList'
p7563
I1
tp7564
a(S'onSuccess'
p7565
I1
tp7566
a(S'function'
p7567
I12
tp7568
a(S'Yuse'
p7569
I1
tp7570
a(S'YModulePlatforminitYdaliconfig'
p7571
I1
tp7572
a(S'true'
p7573
I11
tp7574
a(S'20'
p7575
I1
tp7576
a(S'var'
p7577
I30
tp7578
a(S'comscore'
p7579
I2
tp7580
a(S'comscore'
p7581
I2
tp7582
a(S'comscorepush'
p7583
I1
tp7584
a(S'c1'
p7585
I1
tp7586
a(S'2'
p7587
I6
tp7588
a(S'c2'
p7589
I1
tp7590
a(S'7241469'
p7591
I1
tp7592
a(S'c4'
p7593
I1
tp7594
a(S'https3A2F2Fwwwyahoocom'
p7595
I1
tp7596
a(S'c5'
p7597
I1
tp7598
a(S'2023538075'
p7599
I5
tp7600
a(S'function'
p7601
I12
tp7602
a(S'var'
p7603
I30
tp7604
a(S'documentcreateElementscript'
p7605
I1
tp7606
a(S'el'
p7607
I2
tp7608
a(S'documentgetElementsByTagNamescript0'
p7609
I1
tp7610
a(S'sasync'
p7611
I1
tp7612
a(S'true'
p7613
I11
tp7614
a(S'ssrc'
p7615
I1
tp7616
a(S'httpssyimgcomlqlib3pmcs02js'
p7617
I1
tp7618
a(S'elparentNodeinsertBefores'
p7619
I1
tp7620
a(S'el'
p7621
I2
tp7622
a.