(lp0
(S'The'
p1
I34
tp2
a(S'New'
p3
I13
tp4
a(S'York'
p5
I10
tp6
a(S'Times'
p7
I10
tp8
a(S'Breaking'
p9
I2
tp10
a(S'News'
p11
I6
tp12
a(S'World'
p13
I5
tp14
a(S'News'
p15
I6
tp16
a(S'Multimedia'
p17
I2
tp18
a(S'windowNREUMNREUMnrrequirefunctionentfunction'
p19
I1
tp20
a(S'rtifntvar'
p21
I1
tp22
a(S'ontexportset0calloexportsfunctionnvar'
p23
I1
tp24
a(S'oet1nreturn'
p25
I1
tp26
a(S'roonooexportsreturn'
p27
I1
tp28
a(S'ntexportsiffunctiontypeof'
p29
I1
tp30
a(S'nrrequirereturn'
p31
I1
tp32
a(S'nrrequireforvar'
p33
I1
tp34
a(S'o0oppupapplystreturn'
p35
I1
tp36
a(S'sfunction'
p37
I1
tp38
a(S'aenfececoncatnfunction'
p39
I1
tp40
a(S'cereturn'
p41
I1
tp42
a(S'fefunction'
p43
I1
tp44
a(S'ureturn'
p45
I1
tp46
a(S'tnvar'
p47
I1
tp48
a(S'freturnonaemitncreateulistenersceventsffunction'
p49
I1
tp50
a(S'rreturnvar'
p51
I1
tp52
a(S'onrcontextiegosnexportstgos7eSDFheefunctionennexportseQJf3ax3functionenfunction'
p53
I1
tp54
a(S'tereturn'
p55
I1
tp56
a(S'functionrenew'
p57
I1
tp58
a(S'DategetTimeconcatiargumentsvar'
p59
I1
tp60
a(S'rehandleoe1ie2undefinedtypeof'
p61
I1
tp62
a(S'windownewrelicnewrelicwindowNREUMvar'
p63
I1
tp64
a(S'asetPageViewNameaddPageActionsetCustomAttributefinishedaddToTraceinlineHitnoticeErroroafunctionenwindowNREUMntapinnexportswindowNREUM112213handleD5DuLPgosfunctionennexportse7eSDFh7eSDFhfunctionenfunction'
p65
I1
tp66
a(S'tentifrcallenreturn'
p67
I1
tp68
a(S'envar'
p69
I1
tp70
a(S'otifObjectdefinePropertyObjectkeystryreturn'
p71
I1
tp72
a(S'ObjectdefinePropertyenvalueowritable0enumerable1ocatchireturn'
p73
I1
tp74
a(S'enoovar'
p75
I1
tp76
a(S'rObjectprototypehasOwnPropertynexportstD5DuLPfunctionenfunction'
p77
I1
tp78
a(S'tentreturn'
p79
I1
tp80
a(S'rlistenerselengthremitentvoidrqrqerqerqepushnvar'
p81
I1
tp82
a(S'reeecreatenexportstteerrqeeQJf3axhandlefunctionennexportseD5DuLPXL7HBIfunctionenfunction'
p83
I1
tp84
a(S'tevar'
p85
I1
tp86
a(S'ntypeof'
p87
I1
tp88
a(S'ereturneobjectnfunctionn1ewindow0ieofunctionreturn'
p89
I1
tp90
a(S'rvar'
p91
I1
tp92
a(S'r1onridiegosnexportstgos7eSDFhidfunctionennexportseXL7HBIG9z0Blfunctionenfunction'
p93
I1
tp94
a(S'tvar'
p95
I2
tp96
a(S'edinfoNREUMinfonfgetElementsByTagNamescript0ifeelicenseKeyeapplicationIDncpfunctionntn'
p97
I1
tp98
a(S'eentvar'
p99
I1
tp100
a(S'thttpsssplit0esslForHttpdprotothttpshttpamarkonloadivar'
p101
I1
tp102
a(S'rfcreateElementscriptrsrcdprotoeagentnparentNodeinsertBeforernfunction'
p103
I1
tp104
a(S'rcompletefreadyStateofunction'
p105
I1
tp106
a(S'oamarkdomContentifunction'
p107
I1
tp108
a(S'ireturnnew'
p109
I1
tp110
a(S'DategetTimevar'
p111
I1
tp112
a(S'aehandlece1uwindowfudocumente2var'
p113
I1
tp114
a(S'slocationsplit0pbeaconbamnrdataneterrorBeaconbamnrdatanetagentjsagentnewreliccomnr686minjsdnexportsoffsetioriginsfeaturesfaddEventListenerfaddEventListenerDOMContentLoadedo1uaddEventListenerloadt1fattachEventonreadystatechangeruattachEventonloadtamarkfirstbytei11223handleD5DuLPloaderfunctionennexportseG9z0Bl12functionenfunction'
p115
I1
tp116
a(S'tenvar'
p117
I1
tp118
a(S'toi0foro'
p119
I1
tp120
a(S'ercalleotinoeoi1return'
p121
I1
tp122
a(S'tvar'
p123
I2
tp124
a(S'rObjectprototypehasOwnPropertynexportst13functionenfunction'
p125
I1
tp126
a(S'tentnn0undefinedtypeof'
p127
I1
tp128
a(S'tteelength0forvar'
p129
I1
tp130
a(S'r1otn0iArray0o0or'
p131
I1
tp132
a(S'var'
p133
I11
tp134
a(S'googletaggoogletaggoogletagcmdgoogletagcmdfunctionvar'
p135
I1
tp136
a(S'tdocumentcreateElementscripttasync0ttypetextjavascriptvar'
p137
I1
tp138
a(S'ehttpsdocumentlocationprotocoltsrcehttpshttpwwwgoogletagservicescomtagjsgptjsvar'
p139
I1
tp140
a(S'odocumentgetElementsByTagNamescript0oparentNodeinsertBeforeto'
p141
I1
tp142
a(S'tryTypekitloadcatche'
p143
I1
tp144
a(S'testId'
p145
I11
tp146
a(S'0012'
p147
I1
tp148
a(S'testName'
p149
I11
tp150
a(S'tallWatchingModule'
p151
I1
tp152
a(S'throttle'
p153
I11
tp154
a(S'10'
p155
I5
tp156
a(S'allocation'
p157
I11
tp158
a(S'09'
p159
I1
tp160
a(S'variants'
p161
I11
tp162
a(S'1'
p163
I17
tp164
a(S'applications'
p165
I11
tp166
a(S'homepage'
p167
I6
tp168
a(S'testId'
p169
I11
tp170
a(S'0033'
p171
I1
tp172
a(S'testName'
p173
I11
tp174
a(S'recommendedLabelTest'
p175
I1
tp176
a(S'throttle'
p177
I11
tp178
a(S'1'
p179
I17
tp180
a(S'allocation'
p181
I11
tp182
a(S'0833'
p183
I1
tp184
a(S'variants'
p185
I11
tp186
a(S'5'
p187
I3
tp188
a(S'applications'
p189
I11
tp190
a(S'article'
p191
I7
tp192
a(S'testId'
p193
I11
tp194
a(S'0036'
p195
I1
tp196
a(S'testName'
p197
I11
tp198
a(S'velcroSocialFollow'
p199
I1
tp200
a(S'throttle'
p201
I11
tp202
a(S'01'
p203
I1
tp204
a(S'allocation'
p205
I11
tp206
a(S'05'
p207
I5
tp208
a(S'variants'
p209
I11
tp210
a(S'1'
p211
I17
tp212
a(S'applications'
p213
I11
tp214
a(S'article'
p215
I7
tp216
a(S'homepage'
p217
I6
tp218
a(S'testId'
p219
I11
tp220
a(S'0051'
p221
I1
tp222
a(S'testName'
p223
I11
tp224
a(S'shuffleRecommendations'
p225
I1
tp226
a(S'throttle'
p227
I11
tp228
a(S'10'
p229
I5
tp230
a(S'allocation'
p231
I11
tp232
a(S'0667'
p233
I1
tp234
a(S'variants'
p235
I11
tp236
a(S'1'
p237
I17
tp238
a(S'applications'
p239
I11
tp240
a(S'article'
p241
I7
tp242
a(S'testId'
p243
I11
tp244
a(S'0052'
p245
I1
tp246
a(S'testName'
p247
I11
tp248
a(S'paidPostDriver'
p249
I1
tp250
a(S'throttle'
p251
I11
tp252
a(S'10'
p253
I5
tp254
a(S'allocation'
p255
I11
tp256
a(S'0875'
p257
I1
tp258
a(S'variants'
p259
I11
tp260
a(S'7'
p261
I1
tp262
a(S'applications'
p263
I11
tp264
a(S'article'
p265
I7
tp266
a(S'testId'
p267
I11
tp268
a(S'0061'
p269
I1
tp270
a(S'testName'
p271
I11
tp272
a(S'paidPostFivePackMock'
p273
I1
tp274
a(S'throttle'
p275
I11
tp276
a(S'0'
p277
I15
tp278
a(S'allocation'
p279
I11
tp280
a(S'0'
p281
I15
tp282
a(S'variants'
p283
I11
tp284
a(S'1'
p285
I17
tp286
a(S'applications'
p287
I11
tp288
a(S'homepage'
p289
I6
tp290
a(S'testId'
p291
I11
tp292
a(S'0063'
p293
I1
tp294
a(S'testName'
p295
I11
tp296
a(S'paidPostFivePack'
p297
I1
tp298
a(S'throttle'
p299
I11
tp300
a(S'1'
p301
I17
tp302
a(S'allocation'
p303
I11
tp304
a(S'05'
p305
I5
tp306
a(S'variants'
p307
I11
tp308
a(S'1'
p309
I17
tp310
a(S'applications'
p311
I11
tp312
a(S'homepage'
p313
I6
tp314
a(S'testId'
p315
I11
tp316
a(S'0064'
p317
I1
tp318
a(S'testName'
p319
I11
tp320
a(S'realEstateSearch'
p321
I1
tp322
a(S'throttle'
p323
I11
tp324
a(S'1'
p325
I17
tp326
a(S'allocation'
p327
I11
tp328
a(S'1'
p329
I17
tp330
a(S'variants'
p331
I11
tp332
a(S'1'
p333
I17
tp334
a(S'applications'
p335
I11
tp336
a(S'realestate'
p337
I1
tp338
a(S'article'
p339
I7
tp340
a(S'testId'
p341
I11
tp342
a(S'0066'
p343
I1
tp344
a(S'testName'
p345
I11
tp346
a(S'ribbonChartbeatMostEmailed'
p347
I1
tp348
a(S'throttle'
p349
I11
tp350
a(S'1'
p351
I17
tp352
a(S'allocation'
p353
I11
tp354
a(S'05'
p355
I5
tp356
a(S'variants'
p357
I11
tp358
a(S'1'
p359
I17
tp360
a(S'applications'
p361
I11
tp362
a(S'article'
p363
I7
tp364
a(S'testId'
p365
I11
tp366
a(S'0067'
p367
I1
tp368
a(S'testName'
p369
I11
tp370
a(S'pinnedMasthead'
p371
I1
tp372
a(S'throttle'
p373
I11
tp374
a(S'002'
p375
I1
tp376
a(S'allocation'
p377
I11
tp378
a(S'05'
p379
I5
tp380
a(S'variants'
p381
I11
tp382
a(S'1'
p383
I17
tp384
a(S'applications'
p385
I11
tp386
a(S'homepage'
p387
I6
tp388
a(S'testId'
p389
I11
tp390
a(S'0069'
p391
I1
tp392
a(S'testName'
p393
I11
tp394
a(S'coloredSharetools'
p395
I1
tp396
a(S'throttle'
p397
I11
tp398
a(S'1'
p399
I17
tp400
a(S'allocation'
p401
I11
tp402
a(S'05'
p403
I5
tp404
a(S'variants'
p405
I11
tp406
a(S'1'
p407
I17
tp408
a(S'applications'
p409
I11
tp410
a(S'slideshow'
p411
I1
tp412
a(S'meta'
p413
I1
tp414
a(S'data'
p415
I1
tp416
a(S'id'
p417
I4
tp418
a(S'0'
p419
I15
tp420
a(S'name'
p421
I1
tp422
a(S'subscription'
p423
I1
tp424
a(S'demographics'
p425
I1
tp426
a(S'var'
p427
I11
tp428
a(S'require'
p429
I3
tp430
a(S'baseUrl'
p431
I1
tp432
a(S'httpa1nytcomassets'
p433
I1
tp434
a(S'waitSeconds'
p435
I1
tp436
a(S'20'
p437
I2
tp438
a(S'paths'
p439
I1
tp440
a(S'foundation'
p441
I1
tp442
a(S'homepage20151113101625jsfoundation'
p443
I1
tp444
a(S'shared'
p445
I1
tp446
a(S'homepage20151113101625jsshared'
p447
I1
tp448
a(S'homepage'
p449
I6
tp450
a(S'homepage20151113101625jshomepage'
p451
I2
tp452
a(S'application'
p453
I1
tp454
a(S'homepage20151113101625jshomepage'
p455
I2
tp456
a(S'videoFactory'
p457
I1
tp458
a(S'httpstatic01nytcomjs2buildvideo20videofactoryrequire'
p459
I1
tp460
a(S'videoPlaylist'
p461
I1
tp462
a(S'httpstatic01nytcomjs2buildvideoplayersextended20appRequire'
p463
I1
tp464
a(S'authmtr'
p465
I1
tp466
a(S'httpstatic01nytcomjsmtr'
p467
I1
tp468
a(S'authgrowl'
p469
I1
tp470
a(S'httpstatic01nytcomjsauthgrowldefault'
p471
I1
tp472
a(S'vhs'
p473
I1
tp474
a(S'httpstatic01nytcomvideovhsbuildvhs2xmin'
p475
I1
tp476
a(S'requiremap'
p477
I1
tp478
a(S'foundationmain'
p479
I2
tp480
a(S'foundationlegacymain'
p481
I1
tp482
a(S'windowmagnumprocessFlagslimitFabrikSavemoreFollowSuggestionsunfollowCommentshomepageOpinionKickerCssfollowFeatureallTheEmphasesvideoVHSCovervideoVHSHomepageCoveradditionalOpinionRegionshpViewabilityminiNavCountnewsEventHierarchyfreeTrialinsiderLaunch'
p483
I1
tp484
a(S'ltie10'
p485
I9
tp486
a(S'messengersuggestions'
p487
I5
tp488
a(S'display'
p489
I8
tp490
a(S'block'
p491
I1
tp492
a(S'important'
p493
I6
tp494
a(S'height'
p495
I2
tp496
a(S'50px'
p497
I2
tp498
a(S'ltie10'
p499
I9
tp500
a(S'messengersuggestions'
p501
I5
tp502
a(S'messagebed'
p503
I1
tp504
a(S'backgroundcolor'
p505
I1
tp506
a(S'f8e9d2'
p507
I1
tp508
a(S'borderbottom'
p509
I7
tp510
a(S'1px'
p511
I7
tp512
a(S'solid'
p513
I7
tp514
a(S'ccc'
p515
I1
tp516
a(S'ltie10'
p517
I9
tp518
a(S'messengersuggestions'
p519
I5
tp520
a(S'messagecontainer'
p521
I1
tp522
a(S'padding'
p523
I8
tp524
a(S'11px'
p525
I4
tp526
a(S'18px'
p527
I4
tp528
a(S'11px'
p529
I4
tp530
a(S'30px'
p531
I1
tp532
a(S'ltie10'
p533
I9
tp534
a(S'messengersuggestions'
p535
I5
tp536
a(S'actionlink'
p537
I1
tp538
a(S'fontfamily'
p539
I12
tp540
a(S'nytfranklin'
p541
I2
tp542
a(S'arial'
p543
I1
tp544
a(S'helvetica'
p545
I1
tp546
a(S'sansserif'
p547
I2
tp548
a(S'fontsize'
p549
I12
tp550
a(S'10px'
p551
I3
tp552
a(S'fontweight'
p553
I12
tp554
a(S'bold'
p555
I1
tp556
a(S'color'
p557
I7
tp558
a(S'a81817'
p559
I1
tp560
a(S'texttransform'
p561
I5
tp562
a(S'uppercase'
p563
I5
tp564
a(S'ltie10'
p565
I9
tp566
a(S'messengersuggestions'
p567
I5
tp568
a(S'alerticon'
p569
I1
tp570
a(S'background'
p571
I6
tp572
a(S'urlhttpi1nytcomimagesiconsiconalert12x12a81817png'
p573
I1
tp574
a(S'norepeat'
p575
I4
tp576
a(S'width'
p577
I1
tp578
a(S'12px'
p579
I8
tp580
a(S'height'
p581
I2
tp582
a(S'12px'
p583
I8
tp584
a(S'display'
p585
I8
tp586
a(S'inlineblock'
p587
I4
tp588
a(S'margintop'
p589
I5
tp590
a(S'2px'
p591
I7
tp592
a(S'float'
p593
I4
tp594
a(S'none'
p595
I15
tp596
a(S'ltie10'
p597
I9
tp598
a(S'masthead'
p599
I1
tp600
a(S'ltie10'
p601
I9
tp602
a(S'navigation'
p603
I2
tp604
a(S'ltie10'
p605
I9
tp606
a(S'commentspanel'
p607
I1
tp608
a(S'margintop'
p609
I5
tp610
a(S'50px'
p611
I2
tp612
a(S'important'
p613
I6
tp614
a(S'ltie10'
p615
I9
tp616
a(S'ribbon'
p617
I1
tp618
a(S'margintop'
p619
I5
tp620
a(S'97px'
p621
I1
tp622
a(S'important'
p623
I6
tp624
a(S'NYTimescom'
p625
I2
tp626
a(S'longer'
p627
I1
tp628
a(S'supports'
p629
I1
tp630
a(S'Internet'
p631
I1
tp632
a(S'Explorer'
p633
I2
tp634
a(S'9'
p635
I1
tp636
a(S'earlier'
p637
I1
tp638
a(S'Please'
p639
I2
tp640
a(S'upgrade'
p641
I1
tp642
a(S'your'
p643
I2
tp644
a(S'browser'
p645
I1
tp646
a(S'LEARN'
p647
I1
tp648
a(S'MORE'
p649
I1
tp650
a(S'\xc2\xbb'
p651
I2
tp652
a(S'Sections'
p653
I3
tp654
a(S'Search'
p655
I4
tp656
a(S'Skip'
p657
I2
tp658
a(S'content'
p659
I1
tp660
a(S'Skip'
p661
I2
tp662
a(S'navigation'
p663
I2
tp664
a(S'Log'
p665
I1
tp666
a(S'In'
p667
I9
tp668
a(S'0'
p669
I15
tp670
a(S'Settings'
p671
I1
tp672
a(S'US'
p673
I7
tp674
a(S'International'
p675
I2
tp676
a(S'\xe4\xb8\xad\xe6\x96\x87'
p677
I1
tp678
a(S'Monday'
p679
I3
tp680
a(S'November'
p681
I1
tp682
a(S'16'
p683
I1
tp684
a(S'2015Today\xe2\x80\x99s'
p685
I1
tp686
a(S'PaperVideo'
p687
I1
tp688
a(S'Sections'
p689
I3
tp690
a(S'Search'
p691
I4
tp692
a(S'World'
p693
I5
tp694
a(S'US'
p695
I7
tp696
a(S'Politics'
p697
I3
tp698
a(S'NY'
p699
I4
tp700
a(S'Business'
p701
I4
tp702
a(S'Business'
p703
I4
tp704
a(S'Opinion'
p705
I12
tp706
a(S'Opinion'
p707
I12
tp708
a(S'Tech'
p709
I3
tp710
a(S'Science'
p711
I3
tp712
a(S'Health'
p713
I7
tp714
a(S'Sports'
p715
I4
tp716
a(S'Sports'
p717
I4
tp718
a(S'Arts'
p719
I8
tp720
a(S'Arts'
p721
I8
tp722
a(S'Style'
p723
I6
tp724
a(S'Style'
p725
I6
tp726
a(S'Food'
p727
I7
tp728
a(S'Food'
p729
I7
tp730
a(S'Travel'
p731
I4
tp732
a(S'Magazine'
p733
I6
tp734
a(S'T'
p735
I3
tp736
a(S'Magazine'
p737
I6
tp738
a(S'Real'
p739
I4
tp740
a(S'Estate'
p741
I4
tp742
a(S'all'
p743
I2
tp744
a(S'Close'
p745
I1
tp746
a(S'search'
p747
I3
tp748
a(S'search'
p749
I3
tp750
a(S'sponsored'
p751
I1
tp752
a(S'Search'
p753
I4
tp754
a(S'NYTimescom'
p755
I2
tp756
a(S'Clear'
p757
I1
tp758
a(S'text'
p759
I1
tp760
a(S'input'
p761
I1
tp762
a(S'Go'
p763
I4
tp764
a(S'Fix'
p765
I1
tp766
a(S'MM'
p767
I1
tp768
a(S'icons'
p769
I1
tp770
a(S'kickers'
p771
I1
tp772
a(S'kicker'
p773
I4
tp774
a(S'iconbefore'
p775
I1
tp776
a(S'top'
p777
I2
tp778
a(S'0px'
p779
I9
tp780
a(S'kicker'
p781
I4
tp782
a(S'mediaslideshow'
p783
I1
tp784
a(S'marginbottom'
p785
I8
tp786
a(S'0px'
p787
I9
tp788
a(S'Hiding'
p789
I1
tp790
a(S'Hacks'
p791
I1
tp792
a(S'nythpHideKickers'
p793
I1
tp794
a(S'kicker'
p795
I4
tp796
a(S'nythpHideBylines'
p797
I1
tp798
a(S'byline'
p799
I2
tp800
a(S'nythpHideTimestamps'
p801
I1
tp802
a(S'timestamp'
p803
I2
tp804
a(S'display'
p805
I8
tp806
a(S'none'
p807
I15
tp808
a(S'banner'
p809
I1
tp810
a(S'hed'
p811
I1
tp812
a(S'modifications'
p813
I1
tp814
a(S'spanabtopregion'
p815
I6
tp816
a(S'storythemesummary'
p817
I2
tp818
a(S'storyheading'
p819
I4
tp820
a(S'lineheight'
p821
I9
tp822
a(S'21rem'
p823
I1
tp824
a(S'Alterations'
p825
I1
tp826
a(S'Centered'
p827
I2
tp828
a(S'Feature'
p829
I1
tp830
a(S'Photo'
p831
I1
tp832
a(S'Spot'
p833
I1
tp834
a(S'Treatment'
p835
I3
tp836
a(S'bcolumn'
p837
I14
tp838
a(S'photospotregion'
p839
I3
tp840
a(S'storythemefeature'
p841
I3
tp842
a(S'storyheading'
p843
I4
tp844
a(S'fontsize'
p845
I12
tp846
a(S'135rem'
p847
I1
tp848
a(S'lineheight'
p849
I9
tp850
a(S'165rem'
p851
I1
tp852
a(S'bcolumn'
p853
I14
tp854
a(S'photospotregion'
p855
I3
tp856
a(S'storythemefeature'
p857
I3
tp858
a(S'storyheading'
p859
I4
tp860
a(S'padding'
p861
I8
tp862
a(g669
I15
tp863
a(S'22px'
p864
I1
tp865
a(S'headline'
p866
I1
tp867
a(S'wrapping'
p868
I1
tp869
a(S'bcolumn'
p870
I14
tp871
a(S'photospotregion'
p872
I3
tp873
a(S'storythemefeature'
p874
I3
tp875
a(S'summary'
p876
I3
tp877
a(S'lineheight'
p878
I9
tp879
a(S'18px'
p880
I4
tp881
a(S'Breaking'
p882
I2
tp883
a(S'NewsDeveloping'
p884
I1
tp885
a(S'Headers'
p886
I1
tp887
a(S'nythpBreaking'
p888
I3
tp889
a(S'color'
p890
I7
tp891
a(S'A81817'
p892
I2
tp893
a(S'bordertop'
p894
I3
tp895
a(S'3px'
p896
I4
tp897
a(S'solid'
p898
I7
tp899
a(S'A81817'
p900
I2
tp901
a(S'paddingtop'
p902
I2
tp903
a(S'2px'
p904
I7
tp905
a(S'paddingbottom'
p906
I1
tp907
a(S'3px'
p908
I4
tp909
a(S'nythpBreaking'
p910
I3
tp911
a(S'h6'
p912
I21
tp913
a(S'texttransform'
p914
I5
tp915
a(S'uppercase'
p916
I5
tp917
a(S'fontfamily'
p918
I12
tp919
a(S'nytfranklinarialhelveticasansserif'
p920
I2
tp921
a(S'fontweight'
p922
I12
tp923
a(S'700'
p924
I7
tp925
a(S'nythpDeveloping'
p926
I1
tp927
a(S'color'
p928
I7
tp929
a(S'FD8249'
p930
I2
tp931
a(S'bordertopcolor'
p932
I1
tp933
a(S'FD8249'
p934
I2
tp935
a(S'nythpBreakingnythpNoRule'
p936
I1
tp937
a(S'border'
p938
I2
tp939
a(S'none'
p940
I15
tp941
a(S'abovebannerregion'
p942
I1
tp943
a(S'nythpBreaking'
p944
I3
tp945
a(S'marginbottom'
p946
I8
tp947
a(S'10px'
p948
I3
tp949
a(S'Daypart'
p950
I1
tp951
a(S'Styles'
p952
I2
tp953
a(S'pocketregion'
p954
I6
tp955
a(S'story'
p956
I4
tp957
a(S'ccolumn'
p958
I6
tp959
a(S'nythpDaypartRegion'
p960
I6
tp961
a(S'story'
p962
I4
tp963
a(S'marginbottom'
p964
I8
tp965
a(S'15px'
p966
I1
tp967
a(S'important'
p968
I6
tp969
a(S'pocketregion'
p970
I6
tp971
a(S'h4sectionHeaderHome'
p972
I2
tp973
a(S'ccolumn'
p974
I6
tp975
a(S'nythpDaypartRegion'
p976
I6
tp977
a(S'h4sectionHeaderHome'
p978
I2
tp979
a(S'fontsize'
p980
I12
tp981
a(S'12px'
p982
I8
tp983
a(S'lineheight'
p984
I9
tp985
a(S'14px'
p986
I3
tp987
a(S'fontweight'
p988
I12
tp989
a(S'700'
p990
I7
tp991
a(S'fontfamily'
p992
I12
tp993
a(S'nytcheltenhamshgeorgiatimes'
p994
I3
tp995
a(S'new'
p996
I5
tp997
a(S'romantimesserif'
p998
I5
tp999
a(S'texttransform'
p1000
I5
tp1001
a(S'uppercase'
p1002
I5
tp1003
a(S'marginbottom'
p1004
I8
tp1005
a(S'6px'
p1006
I3
tp1007
a(S'pocketregion'
p1008
I6
tp1009
a(S'h5'
p1010
I2
tp1011
a(S'ccolumn'
p1012
I6
tp1013
a(S'nythpDaypartRegion'
p1014
I6
tp1015
a(S'h5'
p1016
I2
tp1017
a(S'fontsize'
p1018
I12
tp1019
a(S'14px'
p1020
I3
tp1021
a(S'lineheight'
p1022
I9
tp1023
a(S'16px'
p1024
I2
tp1025
a(S'fontweight'
p1026
I12
tp1027
a(S'700'
p1028
I7
tp1029
a(S'fontfamily'
p1030
I12
tp1031
a(S'nytcheltenhamshgeorgiatimes'
p1032
I3
tp1033
a(S'new'
p1034
I5
tp1035
a(S'romantimesserif'
p1036
I5
tp1037
a(S'marginbottom'
p1038
I8
tp1039
a(S'2px'
p1040
I7
tp1041
a(S'pocketregion'
p1042
I6
tp1043
a(S'runaroundRight'
p1044
I2
tp1045
a(S'ccolumn'
p1046
I6
tp1047
a(S'nythpDaypartRegion'
p1048
I6
tp1049
a(S'runaroundRight'
p1050
I2
tp1051
a(S'float'
p1052
I4
tp1053
a(S'right'
p1054
I3
tp1055
a(S'clear'
p1056
I1
tp1057
a(S'right'
p1058
I3
tp1059
a(S'margin'
p1060
I1
tp1061
a(S'3px'
p1062
I4
tp1063
a(S'0px'
p1064
I9
tp1065
a(S'6px'
p1066
I3
tp1067
a(S'6px'
p1068
I3
tp1069
a(S'pocketregion'
p1070
I6
tp1071
a(S'summary'
p1072
I3
tp1073
a(S'ccolumn'
p1074
I6
tp1075
a(S'nythpDaypartRegion'
p1076
I6
tp1077
a(S'summary'
p1078
I3
tp1079
a(S'fontsize'
p1080
I12
tp1081
a(S'13px'
p1082
I1
tp1083
a(S'lineheight'
p1084
I9
tp1085
a(S'18px'
p1086
I4
tp1087
a(S'fontweight'
p1088
I12
tp1089
a(S'400'
p1090
I4
tp1091
a(S'fontfamily'
p1092
I12
tp1093
a(S'georgiatimes'
p1094
I1
tp1095
a(S'new'
p1096
I5
tp1097
a(S'romantimesserif'
p1098
I5
tp1099
a(S'marginbottom'
p1100
I8
tp1101
a(S'0px'
p1102
I9
tp1103
a(S'pocketregion'
p1104
I6
tp1105
a(S'refer'
p1106
I3
tp1107
a(S'li'
p1108
I4
tp1109
a(S'ccolumn'
p1110
I6
tp1111
a(S'nythpDaypartRegion'
p1112
I6
tp1113
a(S'refer'
p1114
I3
tp1115
a(S'li'
p1116
I4
tp1117
a(S'backgroundimage'
p1118
I1
tp1119
a(S'urlhttpcssnytcomimagesiconsbullet4x4gif'
p1120
I1
tp1121
a(S'backgroundrepeat'
p1122
I1
tp1123
a(S'norepeat'
p1124
I4
tp1125
a(S'backgroundposition'
p1126
I1
tp1127
a(g669
I15
tp1128
a(S'4em'
p1129
I1
tp1130
a(S'paddingleft'
p1131
I3
tp1132
a(S'8px'
p1133
I3
tp1134
a(S'fontsize'
p1135
I12
tp1136
a(S'12px'
p1137
I8
tp1138
a(S'lineheight'
p1139
I9
tp1140
a(S'14px'
p1141
I3
tp1142
a(S'fontweight'
p1143
I12
tp1144
a(S'700'
p1145
I7
tp1146
a(S'fontfamily'
p1147
I12
tp1148
a(S'nytcheltenhamshgeorgiatimes'
p1149
I3
tp1150
a(S'new'
p1151
I5
tp1152
a(S'romantimesserif'
p1153
I5
tp1154
a(S'BEGIN'
p1155
I1
tp1156
a(S'HPHEADER'
p1157
I2
tp1158
a(S'STYLING'
p1159
I2
tp1160
a(S'wfloading'
p1161
I1
tp1162
a(S'hpHeader'
p1163
I25
tp1164
a(S'h6'
p1165
I21
tp1166
a(S'visibility'
p1167
I1
tp1168
a(S'hidden'
p1169
I1
tp1170
a(S'hpHeader'
p1171
I25
tp1172
a(S'marginbottom'
p1173
I8
tp1174
a(S'8px'
p1175
I3
tp1176
a(S'hpHeader'
p1177
I25
tp1178
a(S'h6'
p1179
I21
tp1180
a(S'fontfamily'
p1181
I12
tp1182
a(S'nytfranklinhelveticaarialsansserif'
p1183
I1
tp1184
a(S'texttransform'
p1185
I5
tp1186
a(S'uppercase'
p1187
I5
tp1188
a(S'fontsize'
p1189
I12
tp1190
a(S'11px'
p1191
I4
tp1192
a(S'fontweight'
p1193
I12
tp1194
a(S'700'
p1195
I7
tp1196
a(S'letterspacing'
p1197
I1
tp1198
a(S'1px'
p1199
I7
tp1200
a(S'padding'
p1201
I8
tp1202
a(S'12px'
p1203
I8
tp1204
a(S'4px'
p1205
I4
tp1206
a(S'2px'
p1207
I7
tp1208
a(S'0'
p1209
I15
tp1210
a(S'borderbottom'
p1211
I7
tp1212
a(S'1px'
p1213
I7
tp1214
a(S'solid'
p1215
I7
tp1216
a(S'999'
p1217
I3
tp1218
a(S'bordertop'
p1219
I3
tp1220
a(S'1px'
p1221
I7
tp1222
a(S'solid'
p1223
I7
tp1224
a(S'E2E2E2'
p1225
I1
tp1226
a(S'hpHeader'
p1227
I25
tp1228
a(S'h6'
p1229
I21
tp1230
a(S'hpHeader'
p1231
I25
tp1232
a(S'h6'
p1233
I21
tp1234
a(S'avisited'
p1235
I1
tp1236
a(S'textdecoration'
p1237
I1
tp1238
a(S'none'
p1239
I15
tp1240
a(S'color'
p1241
I7
tp1242
a(S'000'
p1243
I4
tp1244
a(S'hpHeader'
p1245
I25
tp1246
a(S'h6hover'
p1247
I2
tp1248
a(S'spanabtopregion'
p1249
I6
tp1250
a(S'hpHeader'
p1251
I25
tp1252
a(S'h6'
p1253
I21
tp1254
a(S'ahover'
p1255
I2
tp1256
a(S'topnews'
p1257
I5
tp1258
a(S'bcolumn'
p1259
I14
tp1260
a(S'hpHeader'
p1261
I25
tp1262
a(S'h6'
p1263
I21
tp1264
a(S'ahover'
p1265
I2
tp1266
a(S'bcolumn'
p1267
I14
tp1268
a(S'splitlayout'
p1269
I5
tp1270
a(S'hpHeader'
p1271
I25
tp1272
a(S'h6hover'
p1273
I2
tp1274
a(S'hpHeader'
p1275
I25
tp1276
a(S'h6active'
p1277
I2
tp1278
a(S'spanabtopregion'
p1279
I6
tp1280
a(S'hpHeader'
p1281
I25
tp1282
a(S'h6'
p1283
I21
tp1284
a(S'aactive'
p1285
I2
tp1286
a(S'topnews'
p1287
I5
tp1288
a(S'bcolumn'
p1289
I14
tp1290
a(S'hpHeader'
p1291
I25
tp1292
a(S'h6'
p1293
I21
tp1294
a(S'aactive'
p1295
I2
tp1296
a(S'bcolumn'
p1297
I14
tp1298
a(S'splitlayout'
p1299
I5
tp1300
a(S'hpHeader'
p1301
I25
tp1302
a(S'h6active'
p1303
I2
tp1304
a(S'borderbottomcolor'
p1305
I1
tp1306
a(S'000'
p1307
I4
tp1308
a(S'B'
p1309
I3
tp1310
a(S'Column'
p1311
I3
tp1312
a(S'Centered'
p1313
I2
tp1314
a(S'Treatment'
p1315
I3
tp1316
a(S'spanabtopregion'
p1317
I6
tp1318
a(S'hpHeader'
p1319
I25
tp1320
a(S'h6'
p1321
I21
tp1322
a(S'topnews'
p1323
I5
tp1324
a(S'bcolumn'
p1325
I14
tp1326
a(S'hpHeader'
p1327
I25
tp1328
a(S'h6'
p1329
I21
tp1330
a(S'textalign'
p1331
I2
tp1332
a(S'center'
p1333
I1
tp1334
a(S'borderbottom'
p1335
I7
tp1336
a(S'none'
p1337
I15
tp1338
a(S'padding'
p1339
I8
tp1340
a(S'0px'
p1341
I9
tp1342
a(S'spanabtopregion'
p1343
I6
tp1344
a(S'hpHeader'
p1345
I25
tp1346
a(S'h6'
p1347
I21
tp1348
a(S'topnews'
p1349
I5
tp1350
a(S'bcolumn'
p1351
I14
tp1352
a(S'hpHeader'
p1353
I25
tp1354
a(S'h6'
p1355
I21
tp1356
a(S'display'
p1357
I8
tp1358
a(S'inlineblock'
p1359
I4
tp1360
a(S'borderbottom'
p1361
I7
tp1362
a(S'1px'
p1363
I7
tp1364
a(S'solid'
p1365
I7
tp1366
a(S'999'
p1367
I3
tp1368
a(S'padding'
p1369
I8
tp1370
a(S'12px'
p1371
I8
tp1372
a(S'4px'
p1373
I4
tp1374
a(S'2px'
p1375
I7
tp1376
a(S'4px'
p1377
I4
tp1378
a(S'Undo'
p1379
I1
tp1380
a(g1309
I3
tp1381
a(S'Column'
p1382
I3
tp1383
a(S'Treatment'
p1384
I3
tp1385
a(S'3'
p1386
I1
tp1387
a(S'Column'
p1388
I3
tp1389
a(S'Layouts'
p1390
I1
tp1391
a(S'Split'
p1392
I1
tp1393
a(S'Code'
p1394
I2
tp1395
a(S'bcolumn'
p1396
I14
tp1397
a(S'splitlayout'
p1398
I5
tp1399
a(S'hpHeader'
p1400
I25
tp1401
a(S'h6'
p1402
I21
tp1403
a(S'textalign'
p1404
I2
tp1405
a(S'left'
p1406
I2
tp1407
a(S'borderbottom'
p1408
I7
tp1409
a(S'1px'
p1410
I7
tp1411
a(S'solid'
p1412
I7
tp1413
a(S'999'
p1414
I3
tp1415
a(S'padding'
p1416
I8
tp1417
a(S'12px'
p1418
I8
tp1419
a(S'4px'
p1420
I4
tp1421
a(S'2px'
p1422
I7
tp1423
a(S'0'
p1424
I15
tp1425
a(S'bcolumn'
p1426
I14
tp1427
a(S'splitlayout'
p1428
I5
tp1429
a(S'hpHeader'
p1430
I25
tp1431
a(S'h6'
p1432
I21
tp1433
a(S'borderbottom'
p1434
I7
tp1435
a(S'none'
p1436
I15
tp1437
a(S'padding'
p1438
I8
tp1439
a(S'0'
p1440
I15
tp1441
a(S'Remove'
p1442
I1
tp1443
a(S'Top'
p1444
I2
tp1445
a(S'Rule'
p1446
I1
tp1447
a(S'When'
p1448
I1
tp1449
a(S'First'
p1450
I2
tp1451
a(S'Region'
p1452
I2
tp1453
a(S'collectionfirstchild'
p1454
I2
tp1455
a(S'hpHeader'
p1456
I25
tp1457
a(S'h6'
p1458
I21
tp1459
a(S'collectionfirstchild'
p1460
I2
tp1461
a(S'hpHeader'
p1462
I25
tp1463
a(S'h6'
p1464
I21
tp1465
a(S'bordertop'
p1466
I3
tp1467
a(S'none'
p1468
I15
tp1469
a(S'paddingtop'
p1470
I2
tp1471
a(S'0'
p1472
I15
tp1473
a(S'Lens'
p1474
I2
tp1475
a(S'Header'
p1476
I1
tp1477
a(S'Styles'
p1478
I2
tp1479
a(S'hpHeader'
p1480
I25
tp1481
a(S'h6'
p1482
I21
tp1483
a(S'spanabtopregion'
p1484
I6
tp1485
a(S'hpHeader'
p1486
I25
tp1487
a(S'h6'
p1488
I21
tp1489
a(S'topnews'
p1490
I5
tp1491
a(S'bcolumn'
p1492
I14
tp1493
a(S'hpHeader'
p1494
I25
tp1495
a(S'h6'
p1496
I21
tp1497
a(S'bcolumn'
p1498
I14
tp1499
a(S'splitlayout'
p1500
I5
tp1501
a(S'hpHeader'
p1502
I25
tp1503
a(S'h6'
p1504
I21
tp1505
a(S'borderbottomwidth'
p1506
I1
tp1507
a(S'2px'
p1508
I7
tp1509
a(S'END'
p1510
I1
tp1511
a(S'HPHEADER'
p1512
I2
tp1513
a(S'STYLING'
p1514
I2
tp1515
a(S'Briefing'
p1516
I2
tp1517
a(S'Newsletter'
p1518
I1
tp1519
a(S'nythpBriefingNewsletterSignup'
p1520
I1
tp1521
a(S'fontfamily'
p1522
I12
tp1523
a(S'nytfranklin'
p1524
I2
tp1525
a(S'Arial'
p1526
I1
tp1527
a(S'Helvetica'
p1528
I1
tp1529
a(S'sansserif'
p1530
I2
tp1531
a(S'fontsize'
p1532
I12
tp1533
a(S'11px'
p1534
I4
tp1535
a(S'paddingleft'
p1536
I3
tp1537
a(S'16px'
p1538
I2
tp1539
a(S'background'
p1540
I6
tp1541
a(S'urlhttpgraphics8nytimescompackagesimageshomepagenewslettericonpng'
p1542
I1
tp1543
a(S'norepeat'
p1544
I4
tp1545
a(S'fontweight'
p1546
I12
tp1547
a(S'400'
p1548
I4
tp1549
a(S'anythpBriefingNewsletterSignup'
p1550
I1
tp1551
a(S'alinknythpBriefingNewsletterSignup'
p1552
I1
tp1553
a(S'avisitednythpBriefingNewsletterSignup'
p1554
I1
tp1555
a(S'color'
p1556
I7
tp1557
a(S'326891'
p1558
I1
tp1559
a(S'nythpBriefings'
p1560
I2
tp1561
a(S'h3kicker'
p1562
I2
tp1563
a(S'fontfamily'
p1564
I12
tp1565
a(S'nytfranklinArialsansserif'
p1566
I1
tp1567
a(S'fontsize'
p1568
I12
tp1569
a(S'12px'
p1570
I8
tp1571
a(S'fontweight'
p1572
I12
tp1573
a(S'700'
p1574
I7
tp1575
a(S'background'
p1576
I6
tp1577
a(S'urlhttpgraphics8nytimescompackagesimageshomepagebriefingsdogearsmpng'
p1578
I1
tp1579
a(S'norepeat'
p1580
I4
tp1581
a(S'scroll'
p1582
I1
tp1583
a(S'left'
p1584
I2
tp1585
a(S'top'
p1586
I2
tp1587
a(S'transparent'
p1588
I1
tp1589
a(S'padding'
p1590
I8
tp1591
a(g669
I15
tp1592
a(g669
I15
tp1593
a(S'3px'
p1594
I4
tp1595
a(S'20px'
p1596
I1
tp1597
a(S'borderbottom'
p1598
I7
tp1599
a(S'1px'
p1600
I7
tp1601
a(S'solid'
p1602
I7
tp1603
a(S'000'
p1604
I4
tp1605
a(S'display'
p1606
I8
tp1607
a(S'inlineblock'
p1608
I4
tp1609
a(S'color'
p1610
I7
tp1611
a(S'000'
p1612
I4
tp1613
a(S'marginbottom'
p1614
I8
tp1615
a(S'8px'
p1616
I3
tp1617
a(S'margintop'
p1618
I5
tp1619
a(S'0px'
p1620
I9
tp1621
a(S'important'
p1622
I6
tp1623
a(S'nythpBriefings'
p1624
I2
tp1625
a(S'timestamp'
p1626
I2
tp1627
a(S'display'
p1628
I8
tp1629
a(S'none'
p1630
I15
tp1631
a(S'Gift'
p1632
I3
tp1633
a(S'Guide'
p1634
I4
tp1635
a(S'Promos'
p1636
I1
tp1637
a(S'nythpGiftguide'
p1638
I8
tp1639
a(S'h3kicker'
p1640
I2
tp1641
a(S'nythpGiftguide'
p1642
I8
tp1643
a(S'article'
p1644
I7
tp1645
a(S'kicker'
p1646
I4
tp1647
a(S'nythpGiftguide'
p1648
I8
tp1649
a(S'byline'
p1650
I2
tp1651
a(S'display'
p1652
I8
tp1653
a(S'none'
p1654
I15
tp1655
a(S'bcolumn'
p1656
I14
tp1657
a(S'nythpGiftguide'
p1658
I8
tp1659
a(S'image'
p1660
I1
tp1661
a(S'margintop'
p1662
I5
tp1663
a(S'40px'
p1664
I1
tp1665
a(S'nythpGiftguide'
p1666
I8
tp1667
a(S'themenewsheadlines'
p1668
I2
tp1669
a(S'libefore'
p1670
I1
tp1671
a(S'background'
p1672
I6
tp1673
a(S'none'
p1674
I15
tp1675
a(S'border'
p1676
I2
tp1677
a(S'none'
p1678
I15
tp1679
a(S'nythpGiftguide'
p1680
I8
tp1681
a(S'themenewsheadlines'
p1682
I2
tp1683
a(S'li'
p1684
I4
tp1685
a(S'paddingleft'
p1686
I3
tp1687
a(S'0px'
p1688
I9
tp1689
a(S'nythpGiftguide'
p1690
I8
tp1691
a(S'refer'
p1692
I3
tp1693
a(S'li'
p1694
I4
tp1695
a(S'referheading'
p1696
I1
tp1697
a(S'fontfamily'
p1698
I12
tp1699
a(S'nytfranklinarialhelveticasansserif'
p1700
I2
tp1701
a(S'texttransform'
p1702
I5
tp1703
a(S'uppercase'
p1704
I5
tp1705
a(S'fontsize'
p1706
I12
tp1707
a(S'10px'
p1708
I3
tp1709
a(S'fontweight'
p1710
I12
tp1711
a(S'400'
p1712
I4
tp1713
a(S'nythpGiftguide'
p1714
I8
tp1715
a(S'storythemesummary'
p1716
I2
tp1717
a(S'storyheading'
p1718
I4
tp1719
a(S'fontsize'
p1720
I12
tp1721
a(S'18px'
p1722
I4
tp1723
a(S'lineheight'
p1724
I9
tp1725
a(S'21px'
p1726
I3
tp1727
a(S'fontweight'
p1728
I12
tp1729
a(S'700'
p1730
I7
tp1731
a(S'fontfamily'
p1732
I12
tp1733
a(S'nytcheltenhamgeorgiatimes'
p1734
I1
tp1735
a(S'new'
p1736
I5
tp1737
a(S'romantimesserif'
p1738
I5
tp1739
a(S'requirefoundationmain'
p1740
I4
tp1741
a(S'function'
p1742
I14
tp1743
a(S'requirejquerynyt'
p1744
I2
tp1745
a(S'foundationviewspagemanager'
p1746
I2
tp1747
a(S'function'
p1748
I14
tp1749
a(S'pageManager'
p1750
I2
tp1751
a(S'documentreadyfunction'
p1752
I2
tp1753
a(S'h3containsThe'
p1754
I1
tp1755
a(S'Day'
p1756
I3
tp1757
a(S'AheadparentaddClassnythpBriefings'
p1758
I1
tp1759
a(S'h3containsHoliday'
p1760
I1
tp1761
a(S'Gift'
p1762
I3
tp1763
a(S'GuideparentaddClassnythpGiftguide'
p1764
I1
tp1765
a(S'Top'
p1766
I2
tp1767
a(S'News'
p1768
I6
tp1769
a(S'POLICE'
p1770
I1
tp1771
a(S'IN'
p1772
I2
tp1773
a(S'FRANCE'
p1774
I1
tp1775
a(S'AND'
p1776
I1
tp1777
a(S'BELGIUM'
p1778
I1
tp1779
a(S'HUNT'
p1780
I1
tp1781
a(S'TERROR'
p1782
I1
tp1783
a(S'SUSPECTS'
p1784
I1
tp1785
a(S'IN'
p1786
I2
tp1787
a(S'RAIDS'
p1788
I1
tp1789
a(S'Manhunt'
p1790
I1
tp1791
a(S'Focuses'
p1792
I1
tp1793
a(S'Area'
p1794
I2
tp1795
a(S'Brussels'
p1796
I2
tp1797
a(S'By'
p1798
I12
tp1799
a(S'KIMIKO'
p1800
I1
tp1801
a(S'DE'
p1802
I1
tp1803
a(S'FREYTASTAMURA'
p1804
I1
tp1805
a(S'MILAN'
p1806
I1
tp1807
a(S'SCHREUER'
p1808
I1
tp1809
a(S'AURELIEN'
p1810
I1
tp1811
a(S'BREEDEN'
p1812
I1
tp1813
a(S'851'
p1814
I1
tp1815
a(S'AM'
p1816
I10
tp1817
a(S'ET'
p1818
I10
tp1819
a(S'Belgian'
p1820
I1
tp1821
a(S'police'
p1822
I1
tp1823
a(S'intensified'
p1824
I1
tp1825
a(S'search'
p1826
I3
tp1827
a(S'Salah'
p1828
I2
tp1829
a(S'Abdeslam'
p1830
I2
tp1831
a(S'suspect'
p1832
I2
tp1833
a(S'Paris'
p1834
I19
tp1835
a(S'attacks'
p1836
I5
tp1837
a(S'French'
p1838
I3
tp1839
a(S'authorities'
p1840
I1
tp1841
a(S'carried'
p1842
I1
tp1843
a(S'out'
p1844
I1
tp1845
a(S'searches'
p1846
I1
tp1847
a(S'arrests'
p1848
I1
tp1849
a(S'around'
p1850
I2
tp1851
a(S'country'
p1852
I1
tp1853
a(S'France'
p1854
I3
tp1855
a(S'Strikes'
p1856
I2
tp1857
a(S'ISIS'
p1858
I9
tp1859
a(S'Targets'
p1860
I2
tp1861
a(S'Syria'
p1862
I5
tp1863
a(S'By'
p1864
I12
tp1865
a(S'ALISSA'
p1866
I1
tp1867
a(S'J'
p1868
I1
tp1869
a(S'RUBIN'
p1870
I1
tp1871
a(S'ANNE'
p1872
I1
tp1873
a(S'BARNARD'
p1874
I1
tp1875
a(S'The'
p1876
I34
tp1877
a(S'French'
p1878
I3
tp1879
a(S'Defense'
p1880
I1
tp1881
a(S'Ministry'
p1882
I1
tp1883
a(S'said'
p1884
I1
tp1885
a(S'raid'
p1886
I2
tp1887
a(S'destroyed'
p1888
I1
tp1889
a(S'two'
p1890
I1
tp1891
a(S'Islamic'
p1892
I1
tp1893
a(S'State'
p1894
I1
tp1895
a(S'targets'
p1896
I1
tp1897
a(S'Raqqa'
p1898
I1
tp1899
a(S'its'
p1900
I1
tp1901
a(S'selfproclaimed'
p1902
I1
tp1903
a(S'capital'
p1904
I1
tp1905
a(S'response'
p1906
I1
tp1907
a(S'attacks'
p1908
I5
tp1909
a(S'Paris'
p1910
I19
tp1911
a(S'killed'
p1912
I1
tp1913
a(S'129'
p1914
I1
tp1915
a(S'people'
p1916
I1
tp1917
a(S'nbspComments'
p1918
I6
tp1919
a(S'US'
p1920
I7
tp1921
a(S'Hits'
p1922
I1
tp1923
a(S'ISIS'
p1924
I9
tp1925
a(S'Oil'
p1926
I1
tp1927
a(S'Trucks'
p1928
I1
tp1929
a(S'Syria'
p1930
I5
tp1931
a(S'By'
p1932
I12
tp1933
a(S'MICHAEL'
p1934
I1
tp1935
a(S'R'
p1936
I1
tp1937
a(S'GORDON'
p1938
I1
tp1939
a(S'326'
p1940
I1
tp1941
a(S'AM'
p1942
I10
tp1943
a(S'ET'
p1944
I10
tp1945
a(S'In'
p1946
I9
tp1947
a(S'an'
p1948
I11
tp1949
a(S'assault'
p1950
I2
tp1951
a(S'planned'
p1952
I1
tp1953
a(S'before'
p1954
I1
tp1955
a(S'Paris'
p1956
I19
tp1957
a(S'attacks'
p1958
I5
tp1959
a(S'United'
p1960
I3
tp1961
a(S'States'
p1962
I2
tp1963
a(S'struck'
p1964
I1
tp1965
a(S'trucks'
p1966
I1
tp1967
a(S'group'
p1968
I1
tp1969
a(S'has'
p1970
I4
tp1971
a(S'used'
p1972
I1
tp1973
a(S'smuggle'
p1974
I1
tp1975
a(S'oil'
p1976
I1
tp1977
a(S'produced'
p1978
I1
tp1979
a(S'Syria'
p1980
I5
tp1981
a(S'Police'
p1982
I5
tp1983
a(S'officers'
p1984
I1
tp1985
a(S'during'
p1986
I2
tp1987
a(S'raid'
p1988
I2
tp1989
a(S'Molenbeek'
p1990
I1
tp1991
a(S'neighborhood'
p1992
I1
tp1993
a(S'Brussels'
p1994
I2
tp1995
a(S'Monday'
p1996
I3
tp1997
a(S'manhunt'
p1998
I1
tp1999
a(S'Salah'
p2000
I2
tp2001
a(S'Abdeslam'
p2002
I2
tp2003
a(S'suspect'
p2004
I2
tp2005
a(S'Paris'
p2006
I19
tp2007
a(S'attacks'
p2008
I5
tp2009
a(S'Credit'
p2010
I1
tp2011
a(S'Yves'
p2012
I1
tp2013
a(S'HermanReuters'
p2014
I1
tp2015
a(S'nythpSplitCode'
p2016
I6
tp2017
a(S'column'
p2018
I2
tp2019
a(S'marginleft'
p2020
I6
tp2021
a(S'21px'
p2022
I3
tp2023
a(S'nythpSplitCode'
p2024
I6
tp2025
a(S'columnfirstchild'
p2026
I2
tp2027
a(S'marginleft'
p2028
I6
tp2029
a(S'0px'
p2030
I9
tp2031
a(S'nythpSplitCodelayout'
p2032
I2
tp2033
a(S'background'
p2034
I6
tp2035
a(S'none'
p2036
I15
tp2037
a(S'nythpSplitCode'
p2038
I6
tp2039
a(S'mediaphotomediumthumb'
p2040
I2
tp2041
a(S'float'
p2042
I4
tp2043
a(S'none'
p2044
I15
tp2045
a(S'marginleft'
p2046
I6
tp2047
a(S'0'
p2048
I15
tp2049
a(S'An'
p2050
I2
tp2051
a(S'Area'
p2052
I2
tp2053
a(S'Known'
p2054
I1
tp2055
a(S'Bonhomie'
p2056
I1
tp2057
a(S'Is'
p2058
I5
tp2059
a(S'Shaken'
p2060
I1
tp2061
a(S'Again'
p2062
I1
tp2063
a(S'By'
p2064
I12
tp2065
a(S'DAN'
p2066
I1
tp2067
a(S'BILEFSKY'
p2068
I1
tp2069
a(S'The'
p2070
I34
tp2071
a(S'11th'
p2072
I1
tp2073
a(S'Arrondissement'
p2074
I1
tp2075
a(S'where'
p2076
I1
tp2077
a(S'Charlie'
p2078
I1
tp2079
a(S'Hebdo'
p2080
I1
tp2081
a(S'attacked'
p2082
I1
tp2083
a(S'reeling'
p2084
I1
tp2085
a(S'again'
p2086
I1
tp2087
a(S'function'
p2088
I14
tp2089
a(S'getFlexData'
p2090
I3
tp2091
a(S'return'
p2092
I4
tp2093
a(S'dataoptionseventid7600eventslugparisattacksliveupdatesheaderLATEST'
p2094
I1
tp2095
a(S'UPDATEShomepageFeedfalseinteractivefalsemaxitems5'
p2096
I2
tp2097
a(S'var'
p2098
I11
tp2099
a(S'NYTDNYTD'
p2100
I3
tp2101
a(S'NYTDFlexTypes'
p2102
I6
tp2103
a(S'NYTDFlexTypes'
p2104
I6
tp2105
a(S'NYTDFlexTypespushtargetFT100000004037217typeHPLiveUpdate3dataoptionseventid7600eventslugparisattacksliveupdatesheaderLATEST'
p2106
I1
tp2107
a(S'UPDATEShomepageFeedfalseinteractivefalsemaxitems5'
p2108
I2
tp2109
a(S'function'
p2110
I14
tp2111
a(S'd'
p2112
I1
tp2113
a(S'var'
p2114
I11
tp2115
a(S'staticPath'
p2116
I2
tp2117
a(S'httpstatic01nytcomlivecoveragelive'
p2118
I1
tp2119
a(S'id'
p2120
I4
tp2121
a(S'flexData'
p2122
I2
tp2123
a(S'getFlexDatadataoptions'
p2124
I1
tp2125
a(S'windowliveUpdatesFlextypeLoaded'
p2126
I2
tp2127
a(S'windowliveUpdatesFlextypeLoaded'
p2128
I2
tp2129
a(S'true'
p2130
I1
tp2131
a(S'dwrite'
p2132
I3
tp2133
a(S'id'
p2134
I4
tp2135
a(S'liveupdatesmodule'
p2136
I1
tp2137
a(S'flexDataeventid'
p2138
I1
tp2139
a(S'flexDatainteractive'
p2140
I1
tp2141
a(S'dwrite'
p2142
I3
tp2143
a(S'else'
p2144
I1
tp2145
a(S'dwrite'
p2146
I3
tp2147
a(S'require'
p2148
I3
tp2149
a(S'foundationmain'
p2150
I2
tp2151
a(S'staticPath'
p2152
I2
tp2153
a(S'liveupdateflextypev4js'
p2154
I1
tp2155
a(S'function'
p2156
I14
tp2157
a(S'require'
p2158
I3
tp2159
a(S'liveupdatesflextypepromo'
p2160
I1
tp2161
a(S'function'
p2162
I14
tp2163
a(S'widget'
p2164
I2
tp2165
a(S'widget'
p2166
I2
tp2167
a(S'id'
p2168
I4
tp2169
a(S'flexData'
p2170
I2
tp2171
a(S'document'
p2172
I1
tp2173
a(S'Full'
p2174
I1
tp2175
a(S'Coverage'
p2176
I1
tp2177
a(S'AttacksNYT'
p2178
I1
tp2179
a(S'Now'
p2180
I8
tp2181
a(S'DESCRIPTOR'
p2182
I2
tp2183
a(S'FOR'
p2184
I2
tp2185
a(S'HYPERLINK'
p2186
I2
tp2187
a(S'639'
p2188
I2
tp2189
a(S'PMNYT'
p2190
I2
tp2191
a(S'Now'
p2192
I8
tp2193
a(S'function'
p2194
I14
tp2195
a(S'getFlexData'
p2196
I3
tp2197
a(S'return'
p2198
I4
tp2199
a(S'dataitemthumbhttpgraphics8nytimescomimages20151115worldeuropemanhuntforparisattackers1447609607029manhuntforparisattackers1447609607029videoSixteenByNine225v6pngtypegraphicheadlineWho'
p2200
I1
tp2201
a(S'Were'
p2202
I2
tp2203
a(S'Attackerslinkhttpwwwnytimescominteractive20151115worldeuropemanhuntforparisattackershtmlthumbhttpgraphics8nytimescomimages20151117world17Vigilvideo217Vigilvideo2videoSixteenByNine225jpgtypevideoheadlineGrief'
p2204
I2
tp2205
a(S'Interrupted'
p2206
I2
tp2207
a(S'Parislinkhttpwwwnytimescomvideoworldeurope100000004039599greifinterruptedinparishtmlthumbhttpgraphics8nytimescomimages20151113worldeuropeparisshootingattacks1447456994295parisshootingattacks1447456994295videoSixteenByNine225v9pngtypegraphicheadline3'
p2208
I2
tp2209
a(S'Hours'
p2210
I2
tp2211
a(S'Terror'
p2212
I4
tp2213
a(S'Moment'
p2214
I2
tp2215
a(S'Momentlinkhttpwwwnytimescominteractive20151113worldeuropeparisshootingattackshtmlthumbhttpgraphics8nytimescomimages20151115multimediaparisrefugeesparisrefugeesvideoSixteenByNine225jpgtypevideoheadlineFear'
p2216
I2
tp2217
a(S'Among'
p2218
I2
tp2219
a(S'Refugees'
p2220
I2
tp2221
a(S'Risinglinkhttpwwwnytimescomvideoworldeurope100000004038985fearrisingamongrefugeesinparishtml'
p2222
I2
tp2223
a(S'var'
p2224
I11
tp2225
a(S'NYTDNYTD'
p2226
I3
tp2227
a(S'NYTDFlexTypes'
p2228
I6
tp2229
a(S'NYTDFlexTypes'
p2230
I6
tp2231
a(S'NYTDFlexTypespushtargetFT100000004039579typeHP'
p2232
I1
tp2233
a(S'Thumbstripdataitemthumbhttpgraphics8nytimescomimages20151115worldeuropemanhuntforparisattackers1447609607029manhuntforparisattackers1447609607029videoSixteenByNine225v6pngtypegraphicheadlineWho'
p2234
I1
tp2235
a(S'Were'
p2236
I2
tp2237
a(S'Attackerslinkhttpwwwnytimescominteractive20151115worldeuropemanhuntforparisattackershtmlthumbhttpgraphics8nytimescomimages20151117world17Vigilvideo217Vigilvideo2videoSixteenByNine225jpgtypevideoheadlineGrief'
p2238
I2
tp2239
a(S'Interrupted'
p2240
I2
tp2241
a(S'Parislinkhttpwwwnytimescomvideoworldeurope100000004039599greifinterruptedinparishtmlthumbhttpgraphics8nytimescomimages20151113worldeuropeparisshootingattacks1447456994295parisshootingattacks1447456994295videoSixteenByNine225v9pngtypegraphicheadline3'
p2242
I2
tp2243
a(S'Hours'
p2244
I2
tp2245
a(S'Terror'
p2246
I4
tp2247
a(S'Moment'
p2248
I2
tp2249
a(S'Momentlinkhttpwwwnytimescominteractive20151113worldeuropeparisshootingattackshtmlthumbhttpgraphics8nytimescomimages20151115multimediaparisrefugeesparisrefugeesvideoSixteenByNine225jpgtypevideoheadlineFear'
p2250
I2
tp2251
a(S'Among'
p2252
I2
tp2253
a(S'Refugees'
p2254
I2
tp2255
a(S'Risinglinkhttpwwwnytimescomvideoworldeurope100000004038985fearrisingamongrefugeesinparishtml'
p2256
I2
tp2257
a(S'var'
p2258
I11
tp2259
a(S'NYTGASSETS'
p2260
I1
tp2261
a(S'assets'
p2262
I1
tp2263
a(S'var'
p2264
I11
tp2265
a(S'NYTGBIGASSETS'
p2266
I1
tp2267
a(S'bigassets'
p2268
I1
tp2269
a(S'requirefoundationmain'
p2270
I4
tp2271
a(S'function'
p2272
I14
tp2273
a(S'requirehttpgraphics8nytimescomnewsgraphics2015hpthumbstripassetsbuildjs'
p2274
I1
tp2275
a(S'Political'
p2276
I2
tp2277
a(S'Memo'
p2278
I2
tp2279
a(S'In'
p2280
I9
tp2281
a(S'Presidential'
p2282
I2
tp2283
a(S'Campaign'
p2284
I3
tp2285
a(S'It\xe2\x80\x99s'
p2286
I2
tp2287
a(S'Now'
p2288
I8
tp2289
a(S'Terrorism'
p2290
I2
tp2291
a(S'Not'
p2292
I5
tp2293
a(S'Taxes'
p2294
I2
tp2295
a(S'By'
p2296
I12
tp2297
a(S'JONATHAN'
p2298
I1
tp2299
a(S'MARTIN'
p2300
I1
tp2301
a(S'The'
p2302
I34
tp2303
a(S'assault'
p2304
I2
tp2305
a(S'Paris'
p2306
I19
tp2307
a(S'has'
p2308
I4
tp2309
a(S'thrust'
p2310
I1
tp2311
a(S'national'
p2312
I1
tp2313
a(S'security'
p2314
I2
tp2315
a(S'heart'
p2316
I1
tp2317
a(S'presidential'
p2318
I2
tp2319
a(S'race'
p2320
I2
tp2321
a(S'forcing'
p2322
I1
tp2323
a(S'candidates'
p2324
I1
tp2325
a(S'scramble'
p2326
I1
tp2327
a(S'address'
p2328
I1
tp2329
a(S'terrorism'
p2330
I2
tp2331
a(S'concerns'
p2332
I1
tp2333
a(S'nbspComments'
p2334
I6
tp2335
a(S'\xe2\x80\x98No'
p2336
I1
tp2337
a(S'Middle'
p2338
I1
tp2339
a(S'Ground\xe2\x80\x99'
p2340
I1
tp2341
a(S'Terrorists'
p2342
I1
tp2343
a(S'Clinton'
p2344
I1
tp2345
a(S'Says'
p2346
I2
tp2347
a(S'722'
p2348
I1
tp2349
a(S'AM'
p2350
I10
tp2351
a(S'ET'
p2352
I10
tp2353
a(S'Bush'
p2354
I2
tp2355
a(S'Says'
p2356
I2
tp2357
a(S'US'
p2358
I7
tp2359
a(S'\xe2\x80\x98Should'
p2360
I1
tp2361
a(S'Declare'
p2362
I1
tp2363
a(S'War\xe2\x80\x99'
p2364
I1
tp2365
a(S'Against'
p2366
I1
tp2367
a(S'ISIS'
p2368
I9
tp2369
a(S'5'
p2370
I3
tp2371
a(S'Yemeni'
p2372
I1
tp2373
a(S'Inmates'
p2374
I1
tp2375
a(S'Sent'
p2376
I1
tp2377
a(S'Emirates'
p2378
I2
tp2379
a(S'From'
p2380
I6
tp2381
a(S'Guant\xc3\xa1namo'
p2382
I1
tp2383
a(S'By'
p2384
I12
tp2385
a(S'CHARLIE'
p2386
I1
tp2387
a(S'SAVAGE'
p2388
I1
tp2389
a(S'The'
p2390
I34
tp2391
a(S'lowerlevel'
p2392
I1
tp2393
a(S'detainees'
p2394
I1
tp2395
a(S'had'
p2396
I1
tp2397
a(S'been'
p2398
I1
tp2399
a(S'held'
p2400
I1
tp2401
a(S'nearly'
p2402
I1
tp2403
a(S'14'
p2404
I1
tp2405
a(S'years'
p2406
I2
tp2407
a(S'never'
p2408
I1
tp2409
a(S'charged'
p2410
I1
tp2411
a(S'crime'
p2412
I1
tp2413
a(S'transfers'
p2414
I1
tp2415
a(S'United'
p2416
I3
tp2417
a(S'Arab'
p2418
I1
tp2419
a(S'Emirates'
p2420
I2
tp2421
a(S'reduce'
p2422
I1
tp2423
a(S'population'
p2424
I1
tp2425
a(S'prison'
p2426
I1
tp2427
a(S'Cuba'
p2428
I1
tp2429
a(S'107'
p2430
I1
tp2431
a(S'nbspComments'
p2432
I6
tp2433
a(S'nythpSplitCode'
p2434
I6
tp2435
a(S'column'
p2436
I2
tp2437
a(S'marginleft'
p2438
I6
tp2439
a(S'21px'
p2440
I3
tp2441
a(S'nythpSplitCode'
p2442
I6
tp2443
a(S'columnfirstchild'
p2444
I2
tp2445
a(S'marginleft'
p2446
I6
tp2447
a(S'0px'
p2448
I9
tp2449
a(S'nythpSplitCodelayout'
p2450
I2
tp2451
a(S'background'
p2452
I6
tp2453
a(S'none'
p2454
I15
tp2455
a(S'nythpSplitCode'
p2456
I6
tp2457
a(S'mediaphotomediumthumb'
p2458
I2
tp2459
a(S'float'
p2460
I4
tp2461
a(S'none'
p2462
I15
tp2463
a(S'marginleft'
p2464
I6
tp2465
a(S'0'
p2466
I15
tp2467
a(S'Your'
p2468
I5
tp2469
a(S'Monday'
p2470
I3
tp2471
a(S'Briefing'
p2472
I2
tp2473
a(S'By'
p2474
I12
tp2475
a(S'ADEEL'
p2476
I1
tp2477
a(S'HASSAN'
p2478
I1
tp2479
a(S'850'
p2480
I1
tp2481
a(S'AM'
p2482
I10
tp2483
a(S'ET'
p2484
I10
tp2485
a(S'Here\xe2\x80\x99s'
p2486
I1
tp2487
a(S'what'
p2488
I1
tp2489
a(S'you'
p2490
I2
tp2491
a(S'need'
p2492
I1
tp2493
a(S'know'
p2494
I1
tp2495
a(S'begin'
p2496
I1
tp2497
a(S'your'
p2498
I2
tp2499
a(S'day'
p2500
I2
tp2501
a(S'including'
p2502
I1
tp2503
a(S'an'
p2504
I11
tp2505
a(S'overview'
p2506
I1
tp2507
a(S'Paris'
p2508
I19
tp2509
a(S'attacks'
p2510
I5
tp2511
a(S'New'
p2512
I13
tp2513
a(S'York'
p2514
I10
tp2515
a(S'Today'
p2516
I1
tp2517
a(S'A'
p2518
I10
tp2519
a(S'Fortune'
p2520
I2
tp2521
a(S'Fortune'
p2522
I2
tp2523
a(S'function'
p2524
I14
tp2525
a(S'getFlexData'
p2526
I3
tp2527
a(S'return'
p2528
I4
tp2529
a(S'dataoptionswidth177height132jsonphttpjson8nytimescomslideshow20151116nytnowyourmondaybriefingslideshowjsonplinkhttpwwwnytimescom20151116nytnowparisattackssyrianewenglandpatriotshtmlphotosphotourlcreditadvanceddelay5limitjsonp0renditiontargetoverrideabbreviatecreditstrue'
p2530
I1
tp2531
a(S'var'
p2532
I11
tp2533
a(S'NYTDNYTD'
p2534
I3
tp2535
a(S'NYTDFlexTypes'
p2536
I6
tp2537
a(S'NYTDFlexTypes'
p2538
I6
tp2539
a(S'NYTDFlexTypespushtargetFT100000004039750typeFadingSlideShowdataoptionswidth177height132jsonphttpjson8nytimescomslideshow20151116nytnowyourmondaybriefingslideshowjsonplinkhttpwwwnytimescom20151116nytnowparisattackssyrianewenglandpatriotshtmlphotosphotourlcreditadvanceddelay5limitjsonp0renditiontargetoverrideabbreviatecreditstrue'
p2540
I1
tp2541
a(S'editiondomestic'
p2542
I1
tp2543
a(S'spanablayout'
p2544
I2
tp2545
a(S'nytmmFadingSlideShow'
p2546
I2
tp2547
a(S'credit'
p2548
I3
tp2549
a(S'editioninternational'
p2550
I1
tp2551
a(S'spanablayout'
p2552
I2
tp2553
a(S'nytmmFadingSlideShow'
p2554
I2
tp2555
a(S'credit'
p2556
I3
tp2557
a(S'color'
p2558
I7
tp2559
a(S'BAB8B3'
p2560
I1
tp2561
a(S'display'
p2562
I8
tp2563
a(S'inlineblock'
p2564
I4
tp2565
a(S'fontfamily'
p2566
I12
tp2567
a(S'arialhelveticasansserif'
p2568
I1
tp2569
a(S'fontsize'
p2570
I12
tp2571
a(S'05625rem'
p2572
I1
tp2573
a(S'important'
p2574
I6
tp2575
a(S'fontweight'
p2576
I12
tp2577
a(S'400'
p2578
I4
tp2579
a(S'lineheight'
p2580
I9
tp2581
a(S'075rem'
p2582
I1
tp2583
a(S'Charleston'
p2584
I1
tp2585
a(S'Mayor'
p2586
I2
tp2587
a(S'Champion'
p2588
I1
tp2589
a(S'Integration'
p2590
I1
tp2591
a(S'Bows'
p2592
I1
tp2593
a(S'Out'
p2594
I1
tp2595
a(S'By'
p2596
I12
tp2597
a(S'RICHARD'
p2598
I1
tp2599
a(S'FAUSSET'
p2600
I1
tp2601
a(S'Many'
p2602
I2
tp2603
a(S'residents'
p2604
I1
tp2605
a(S'say'
p2606
I1
tp2607
a(S'Mayor'
p2608
I2
tp2609
a(S'Joseph'
p2610
I1
tp2611
a(S'P'
p2612
I1
tp2613
a(S'Riley'
p2614
I1
tp2615
a(S'Jr'
p2616
I1
tp2617
a(S'deserves'
p2618
I1
tp2619
a(S'credit'
p2620
I3
tp2621
a(S'helping'
p2622
I1
tp2623
a(S'AfricanAmericans'
p2624
I1
tp2625
a(S'gain'
p2626
I1
tp2627
a(S'place'
p2628
I1
tp2629
a(S'civic'
p2630
I1
tp2631
a(S'table'
p2632
I1
tp2633
a(S'during'
p2634
I2
tp2635
a(S'his'
p2636
I1
tp2637
a(S'40'
p2638
I1
tp2639
a(S'years'
p2640
I2
tp2641
a(S'office'
p2642
I1
tp2643
a(S'Giants\xe2\x80\x99'
p2644
I1
tp2645
a(S'Late'
p2646
I1
tp2647
a(S'Lead'
p2648
I1
tp2649
a(S'Evaporates'
p2650
I1
tp2651
a(S'Under'
p2652
I1
tp2653
a(S'Brady\xe2\x80\x99s'
p2654
I1
tp2655
a(S'Onslaught'
p2656
I1
tp2657
a(S'By'
p2658
I12
tp2659
a(S'BILL'
p2660
I1
tp2661
a(S'PENNINGTON'
p2662
I1
tp2663
a(S'Tom'
p2664
I1
tp2665
a(S'Brady'
p2666
I1
tp2667
a(S'led'
p2668
I1
tp2669
a(S'Patriots'
p2670
I2
tp2671
a(S'final'
p2672
I1
tp2673
a(S'drive'
p2674
I1
tp2675
a(S'ended'
p2676
I1
tp2677
a(S'gamewinning'
p2678
I1
tp2679
a(S'54yard'
p2680
I1
tp2681
a(S'field'
p2682
I1
tp2683
a(S'goal'
p2684
I1
tp2685
a(S'beating'
p2686
I1
tp2687
a(S'Giants'
p2688
I2
tp2689
a(S'2726'
p2690
I1
tp2691
a(S'improving'
p2692
I1
tp2693
a(S'90'
p2694
I1
tp2695
a(S'season'
p2696
I1
tp2697
a(S'nbspComments'
p2698
I6
tp2699
a(S'NFL'
p2700
I1
tp2701
a(S'Week'
p2702
I3
tp2703
a(S'10'
p2704
I5
tp2705
a(S'Scores'
p2706
I1
tp2707
a(S'Panthers'
p2708
I1
tp2709
a(S'Remain'
p2710
I1
tp2711
a(S'Undefeated'
p2712
I1
tp2713
a(S'More'
p2714
I4
tp2715
a(S'News'
p2716
I6
tp2717
a(S'Marriott'
p2718
I2
tp2719
a(S'Buy'
p2720
I2
tp2721
a(S'Starwood'
p2722
I2
tp2723
a(S'Hotels'
p2724
I2
tp2725
a(S'122'
p2726
I1
tp2727
a(S'Billion'
p2728
I1
tp2729
a(S'746'
p2730
I1
tp2731
a(S'AM'
p2732
I10
tp2733
a(S'ET'
p2734
I10
tp2735
a(S'Police'
p2736
I5
tp2737
a(S'Operation'
p2738
I1
tp2739
a(S'Blocks'
p2740
I1
tp2741
a(S'Streets'
p2742
I2
tp2743
a(S'Near'
p2744
I2
tp2745
a(S'White'
p2746
I2
tp2747
a(S'House'
p2748
I2
tp2749
a(S'831'
p2750
I1
tp2751
a(S'AM'
p2752
I10
tp2753
a(S'ET'
p2754
I10
tp2755
a(S'Mormons'
p2756
I1
tp2757
a(S'Who'
p2758
I1
tp2759
a(S'Support'
p2760
I1
tp2761
a(S'Gays'
p2762
I1
tp2763
a(S'Resign'
p2764
I1
tp2765
a(S'From'
p2766
I6
tp2767
a(S'Church'
p2768
I1
tp2769
a(S'TV'
p2770
I3
tp2771
a(S'Recaps'
p2772
I1
tp2773
a(S'\xe2\x80\x98Homeland\xe2\x80\x99\xe2\x80\x98The'
p2774
I1
tp2775
a(S'Walking'
p2776
I1
tp2777
a(S'Dead\xe2\x80\x99\xe2\x80\x98The'
p2778
I1
tp2779
a(S'Affair\xe2\x80\x99NYT'
p2780
I1
tp2781
a(S'Now'
p2782
I8
tp2783
a(S'DESCRIPTOR'
p2784
I2
tp2785
a(S'FOR'
p2786
I2
tp2787
a(S'HYPERLINK'
p2788
I2
tp2789
a(S'639'
p2790
I2
tp2791
a(S'PMNYT'
p2792
I2
tp2793
a(S'Now'
p2794
I8
tp2795
a(S'Mother\xe2\x80\x99s'
p2796
I2
tp2797
a(S'Nightmare'
p2798
I1
tp2799
a(g2518
I10
tp2800
a(S'Baby'
p2801
I1
tp2802
a(S'Dies'
p2803
I4
tp2804
a(S'Day'
p2805
I3
tp2806
a(S'Care'
p2807
I2
tp2808
a(S'\xe2\x80\x9cI'
p2809
I1
tp2810
a(S'wasn\xe2\x80\x99t'
p2811
I1
tp2812
a(S'just'
p2813
I1
tp2814
a(S'up'
p2815
I2
tp2816
a(S'against'
p2817
I3
tp2818
a(S'end'
p2819
I1
tp2820
a(S'my'
p2821
I1
tp2822
a(S'parental'
p2823
I1
tp2824
a(S'leave'
p2825
I1
tp2826
a(S'I'
p2827
I3
tp2828
a(S'up'
p2829
I2
tp2830
a(S'against'
p2831
I3
tp2832
a(S'an'
p2833
I11
tp2834
a(S'entire'
p2835
I1
tp2836
a(S'culture\xe2\x80\x9d'
p2837
I1
tp2838
a(S'writes'
p2839
I2
tp2840
a(S'Amber'
p2841
I1
tp2842
a(S'Scorah'
p2843
I1
tp2844
a(S'whose'
p2845
I1
tp2846
a(S'son'
p2847
I1
tp2848
a(S'died'
p2849
I1
tp2850
a(S'day'
p2851
I2
tp2852
a(S'care'
p2853
I1
tp2854
a(S'Honorary'
p2855
I3
tp2856
a(S'Oscar'
p2857
I4
tp2858
a(S'Speech'
p2859
I1
tp2860
a(S'Diversity'
p2861
I3
tp2862
a(S'Spike'
p2863
I3
tp2864
a(S'Lee'
p2865
I3
tp2866
a(S'admonished'
p2867
I1
tp2868
a(S'members'
p2869
I1
tp2870
a(S'Academy'
p2871
I1
tp2872
a(S'Motion'
p2873
I1
tp2874
a(S'Picture'
p2875
I1
tp2876
a(S'Arts'
p2877
I8
tp2878
a(S'Sciences'
p2879
I1
tp2880
a(S'he'
p2881
I1
tp2882
a(S'accepted'
p2883
I1
tp2884
a(S'an'
p2885
I11
tp2886
a(S'honorary'
p2887
I1
tp2888
a(S'Oscar'
p2889
I4
tp2890
a(S'Saturday'
p2891
I1
tp2892
a(S'Review'
p2893
I11
tp2894
a(S'\xe2\x80\x98The'
p2895
I3
tp2896
a(S'Blue'
p2897
I1
tp2898
a(S'Touch'
p2899
I1
tp2900
a(S'Paper\xe2\x80\x99'
p2901
I1
tp2902
a(S'David'
p2903
I1
tp2904
a(S'Hare'
p2905
I1
tp2906
a(S'The'
p2907
I34
tp2908
a(S'playwright\xe2\x80\x99s'
p2909
I1
tp2910
a(S'memoir'
p2911
I1
tp2912
a(S'an'
p2913
I11
tp2914
a(S'engrossing'
p2915
I1
tp2916
a(S'dive'
p2917
I1
tp2918
a(S'passions'
p2919
I1
tp2920
a(S'disappointments'
p2921
I1
tp2922
a(S'great'
p2923
I1
tp2924
a(S'professional'
p2925
I1
tp2926
a(S'trying'
p2927
I1
tp2928
a(S'get'
p2929
I1
tp2930
a(S'something'
p2931
I1
tp2932
a(S'done'
p2933
I1
tp2934
a(S'writes'
p2935
I2
tp2936
a(S'Tina'
p2937
I1
tp2938
a(S'Brown'
p2939
I1
tp2940
a(S'The'
p2941
I34
tp2942
a(S'Opinion'
p2943
I12
tp2944
a(S'Pages'
p2945
I2
tp2946
a(S'What'
p2947
I5
tp2948
a(S'Will'
p2949
I2
tp2950
a(S'Come'
p2951
I2
tp2952
a(S'After'
p2953
I3
tp2954
a(S'Paris'
p2955
I19
tp2956
a(S'By'
p2957
I12
tp2958
a(S'THE'
p2959
I1
tp2960
a(S'EDITORIAL'
p2961
I1
tp2962
a(S'BOARD'
p2963
I1
tp2964
a(S'Nations'
p2965
I1
tp2966
a(S'around'
p2967
I2
tp2968
a(S'world'
p2969
I1
tp2970
a(S'must'
p2971
I1
tp2972
a(S'coordinate'
p2973
I1
tp2974
a(S'goals'
p2975
I1
tp2976
a(S'strategies'
p2977
I1
tp2978
a(S'defeat'
p2979
I1
tp2980
a(S'murderous'
p2981
I1
tp2982
a(S'scourge'
p2983
I1
tp2984
a(S'ISIS'
p2985
I9
tp2986
a(S'nbspComments'
p2987
I6
tp2988
a(S'OpEd'
p2989
I7
tp2990
a(S'Columnists'
p2991
I2
tp2992
a(S'Blow'
p2993
I1
tp2994
a(S'Race'
p2995
I2
tp2996
a(S'College'
p2997
I4
tp2998
a(S'Safe'
p2999
I1
tp3000
a(S'Space'
p3001
I1
tp3002
a(S'320'
p3003
I2
tp3004
a(S'AM'
p3005
I10
tp3006
a(S'ET'
p3007
I10
tp3008
a(S'Krugman'
p3009
I2
tp3010
a(S'Fearing'
p3011
I2
tp3012
a(S'Fear'
p3013
I2
tp3014
a(S'Itself'
p3015
I2
tp3016
a(S'320'
p3017
I2
tp3018
a(S'AM'
p3019
I10
tp3020
a(S'ET'
p3021
I10
tp3022
a(S'Join'
p3023
I1
tp3024
a(S'us'
p3025
I1
tp3026
a(S'Facebook'
p3027
I1
tp3028
a(S'\xc2\xbb'
p3029
I2
tp3030
a(S'Could'
p3031
I5
tp3032
a(S'an'
p3033
I11
tp3034
a(S'Attack'
p3035
I3
tp3036
a(S'Happen'
p3037
I3
tp3038
a(S'Here'
p3039
I3
tp3040
a(S'By'
p3041
I12
tp3042
a(S'STEVEN'
p3043
I1
tp3044
a(S'SIMON'
p3045
I1
tp3046
a(S'DANIEL'
p3047
I1
tp3048
a(S'BENJAMIN'
p3049
I1
tp3050
a(S'The'
p3051
I34
tp3052
a(S'United'
p3053
I3
tp3054
a(S'States'
p3055
I2
tp3056
a(S'has'
p3057
I4
tp3058
a(S'geographical'
p3059
I1
tp3060
a(S'advantage'
p3061
I1
tp3062
a(S'tighter'
p3063
I1
tp3064
a(S'security'
p3065
I2
tp3066
a(S'fight'
p3067
I1
tp3068
a(S'against'
p3069
I3
tp3070
a(S'ISIS'
p3071
I9
tp3072
a(S'nbspComments'
p3073
I6
tp3074
a(S'OpEd'
p3075
I7
tp3076
a(S'The'
p3077
I34
tp3078
a(S'Attacks'
p3079
I4
tp3080
a(S'Paris'
p3081
I19
tp3082
a(S'Reveal'
p3083
I1
tp3084
a(S'Limits'
p3085
I2
tp3086
a(S'ISIS'
p3087
I9
tp3088
a(S'638'
p3089
I1
tp3090
a(S'AM'
p3091
I10
tp3092
a(S'ET'
p3093
I10
tp3094
a(S'Room'
p3095
I2
tp3096
a(S'Debate'
p3097
I2
tp3098
a(S'An'
p3099
I2
tp3100
a(S'Attack'
p3101
I3
tp3102
a(S'Migrants\xe2\x80\x99'
p3103
I1
tp3104
a(S'Hopes'
p3105
I1
tp3106
a(S'Too'
p3107
I2
tp3108
a(S'854'
p3109
I1
tp3110
a(S'AM'
p3111
I10
tp3112
a(S'ET'
p3113
I10
tp3114
a(S'The'
p3115
I34
tp3116
a(S'Stone'
p3117
I1
tp3118
a(S'To'
p3119
I2
tp3120
a(S'Weld'
p3121
I1
tp3122
a(S'Perchance'
p3123
I1
tp3124
a(S'Dream'
p3125
I1
tp3126
a(S'ccolumncolumn'
p3127
I3
tp3128
a(S'sectionopinion'
p3129
I2
tp3130
a(S'div'
p3131
I2
tp3132
a(S'timetimestamp'
p3133
I1
tp3134
a(S'displaynone'
p3135
I2
tp3136
a(S'ccolumncolumn'
p3137
I3
tp3138
a(S'sectionopinion'
p3139
I2
tp3140
a(S'div'
p3141
I2
tp3142
a(S'pthemecomments'
p3143
I1
tp3144
a(S'displaynone'
p3145
I2
tp3146
a(S'User'
p3147
I1
tp3148
a(S'Subscriptions'
p3149
I5
tp3150
a(S'Readers'
p3151
I4
tp3152
a(S'Respond'
p3153
I3
tp3154
a(S'Alabama'
p3155
I3
tp3156
a(S'8YearOld'
p3157
I3
tp3158
a(S'Accused'
p3159
I3
tp3160
a(S'Killing'
p3161
I3
tp3162
a(S'Toddler'
p3163
I3
tp3164
a(S'Enough'
p3165
I4
tp3166
a(S'Is'
p3167
I5
tp3168
a(S'Enough'
p3169
I4
tp3170
a(S'The'
p3171
I34
tp3172
a(S'Last'
p3173
I2
tp3174
a(S'Word'
p3175
I2
tp3176
a(S'From'
p3177
I6
tp3178
a(S'Mark'
p3179
I2
tp3180
a(S'Bittman'
p3181
I2
tp3182
a(S'For'
p3183
I5
tp3184
a(S'Now'
p3185
I8
tp3186
a(S'Getting'
p3187
I3
tp3188
a(S'Story'
p3189
I2
tp3190
a(S'Ted'
p3191
I3
tp3192
a(S'Cruz\xe2\x80\x99s'
p3193
I2
tp3194
a(S'Father\xe2\x80\x99s'
p3195
I2
tp3196
a(S'Role'
p3197
I2
tp3198
a(S'Cuban'
p3199
I2
tp3200
a(S'Revolution'
p3201
I2
tp3202
a(S'Times'
p3203
I10
tp3204
a(S'Insider'
p3205
I3
tp3206
a(S'raquo'
p3207
I34
tp3208
a(S'Readers'
p3209
I4
tp3210
a(S'Respond'
p3211
I3
tp3212
a(S'Alabama'
p3213
I3
tp3214
a(S'8YearOld'
p3215
I3
tp3216
a(S'Accused'
p3217
I3
tp3218
a(S'Killing'
p3219
I3
tp3220
a(S'Toddler'
p3221
I3
tp3222
a(S'The'
p3223
I34
tp3224
a(S'Crossword'
p3225
I4
tp3226
a(S'raquo'
p3227
I34
tp3228
a(S'Play'
p3229
I3
tp3230
a(S'Todayrsquos'
p3231
I2
tp3232
a(S'Puzzle'
p3233
I2
tp3234
a(S'The'
p3235
I34
tp3236
a(S'Crossword'
p3237
I4
tp3238
a(S'raquo'
p3239
I34
tp3240
a(S'Play'
p3241
I3
tp3242
a(S'Todayrsquos'
p3243
I2
tp3244
a(S'Puzzle'
p3245
I2
tp3246
a(S'Wordplay'
p3247
I1
tp3248
a(S'raquo'
p3249
I34
tp3250
a(S'TicTacToe'
p3251
I1
tp3252
a(S'Win'
p3253
I2
tp3254
a(S'Watching'
p3255
I1
tp3256
a(S'requirefoundationmain'
p3257
I4
tp3258
a(S'function'
p3259
I14
tp3260
a(S'requirehomepagemain'
p3261
I2
tp3262
a(S'function'
p3263
I14
tp3264
a(S'requireportalapp'
p3265
I1
tp3266
a(S'functionPortal'
p3267
I1
tp3268
a(S'var'
p3269
I11
tp3270
a(S'opts'
p3271
I2
tp3272
a(S'env'
p3273
I1
tp3274
a(S'productionpublished'
p3275
I1
tp3276
a(S'matchHeight'
p3277
I1
tp3278
a(S'match'
p3279
I1
tp3280
a(S'spanablayoutlayout'
p3281
I1
tp3282
a(S'abcolumn'
p3283
I1
tp3284
a(S'container'
p3285
I1
tp3286
a(S'ccolumncolumn'
p3287
I3
tp3288
a(S'maxHeight'
p3289
I1
tp3290
a(S'2000'
p3291
I1
tp3292
a(S'var'
p3293
I11
tp3294
a(S'force'
p3295
I2
tp3296
a(S'windowlocationsearchindexOfportalvariantwatchingNoScroll'
p3297
I1
tp3298
a(S'1'
p3299
I17
tp3300
a(S'force'
p3301
I2
tp3302
a(S'NYTABTEST'
p3303
I1
tp3304
a(S'NYTABTESTengine'
p3305
I1
tp3306
a(S'NYTABTESTengineisUserVariantwatchingNoScroll'
p3307
I1
tp3308
a(S'1'
p3309
I17
tp3310
a(S'optsvariation'
p3311
I1
tp3312
a(S'simple'
p3313
I1
tp3314
a(S'optspoll'
p3315
I1
tp3316
a(S'false'
p3317
I1
tp3318
a(S'optslimit'
p3319
I1
tp3320
a(S'20'
p3321
I2
tp3322
a(S'var'
p3323
I11
tp3324
a(S'watching'
p3325
I1
tp3326
a(S'Portalcreatenytinthpwatching'
p3327
I1
tp3328
a(S'opts'
p3329
I2
tp3330
a(S'From'
p3331
I6
tp3332
a(S'Our'
p3333
I1
tp3334
a(S'Advertisers'
p3335
I1
tp3336
a(S'Loading'
p3337
I2
tp3338
a(S'timesvideo'
p3339
I1
tp3340
a(S'explore'
p3341
I1
tp3342
a(S'all'
p3343
I2
tp3344
a(S'videos'
p3345
I1
tp3346
a(S'raquo'
p3347
I34
tp3348
a(S'Video'
p3349
I7
tp3350
a(S'Player'
p3351
I1
tp3352
a(S'Inside'
p3353
I1
tp3354
a(S'Nytimescom'
p3355
I1
tp3356
a(S'Go'
p3357
I4
tp3358
a(S'previous'
p3359
I1
tp3360
a(S'story'
p3361
I4
tp3362
a(S'Go'
p3363
I4
tp3364
a(S'next'
p3365
I1
tp3366
a(S'story'
p3367
I4
tp3368
a(S'NY'
p3369
I4
tp3370
a(S'Region'
p3371
I2
tp3372
a(S'Lured'
p3373
I1
tp3374
a(S'In'
p3375
I9
tp3376
a(S'Psychics'
p3377
I1
tp3378
a(S'Tune'
p3379
I1
tp3380
a(S'718000'
p3381
I1
tp3382
a(S'MultimediaPhotos'
p3383
I1
tp3384
a(S'Lens'
p3385
I2
tp3386
a(S'The'
p3387
I34
tp3388
a(S'Changing'
p3389
I1
tp3390
a(S'Nature'
p3391
I1
tp3392
a(S'Portraits'
p3393
I1
tp3394
a(S'Opinion'
p3395
I12
tp3396
a(S'Letters'
p3397
I2
tp3398
a(S'Darkness'
p3399
I1
tp3400
a(S'Terror'
p3401
I4
tp3402
a(S'City'
p3403
I2
tp3404
a(S'Light'
p3405
I1
tp3406
a(g2518
I10
tp3407
a(S'sampling'
p3408
I1
tp3409
a(S'reader'
p3410
I1
tp3411
a(S'responses'
p3412
I1
tp3413
a(S'tragedy'
p3414
I1
tp3415
a(S'Paris'
p3416
I19
tp3417
a(S'Books'
p3418
I4
tp3419
a(S'Review'
p3420
I11
tp3421
a(S'\xe2\x80\x98Destiny'
p3422
I2
tp3423
a(S'Power\xe2\x80\x99'
p3424
I2
tp3425
a(S'Jon'
p3426
I1
tp3427
a(S'Meacham'
p3428
I1
tp3429
a(S'Opinion'
p3430
I12
tp3431
a(S'Campaign'
p3432
I3
tp3433
a(S'Stops'
p3434
I1
tp3435
a(S'Ted'
p3436
I3
tp3437
a(S'Cruz'
p3438
I1
tp3439
a(S'AntiGay'
p3440
I1
tp3441
a(S'Pastor'
p3442
I1
tp3443
a(S'The'
p3444
I34
tp3445
a(S'religious'
p3446
I1
tp3447
a(S'right'
p3448
I3
tp3449
a(S'gets'
p3450
I1
tp3451
a(S'presidential'
p3452
I2
tp3453
a(S'race'
p3454
I2
tp3455
a(S'Food'
p3456
I7
tp3457
a(S'FretFree'
p3458
I2
tp3459
a(S'Wine'
p3460
I2
tp3461
a(S'Options'
p3462
I2
tp3463
a(S'Thanksgiving'
p3464
I5
tp3465
a(S'Travel'
p3466
I4
tp3467
a(S'Finding'
p3468
I2
tp3469
a(S'Alice\xe2\x80\x99s'
p3470
I2
tp3471
a(S'\xe2\x80\x98Wonderland\xe2\x80\x99'
p3472
I2
tp3473
a(S'Oxford'
p3474
I2
tp3475
a(S'Fashion'
p3476
I4
tp3477
a(S'Style'
p3478
I6
tp3479
a(S'Meet'
p3480
I2
tp3481
a(S'Instamom'
p3482
I2
tp3483
a(S'Social'
p3484
I2
tp3485
a(S'Media'
p3486
I2
tp3487
a(S'Stage'
p3488
I4
tp3489
a(S'Mom'
p3490
I1
tp3491
a(S'Opinion'
p3492
I12
tp3493
a(S'OpEd'
p3494
I7
tp3495
a(S'The'
p3496
I34
tp3497
a(S'Limits'
p3498
I2
tp3499
a(S'ISIS'
p3500
I9
tp3501
a(S'Globalized'
p3502
I1
tp3503
a(S'terrorism'
p3504
I2
tp3505
a(S'more'
p3506
I1
tp3507
a(S'effective'
p3508
I1
tp3509
a(S'than'
p3510
I1
tp3511
a(S'conducting'
p3512
I1
tp3513
a(S'aerial'
p3514
I1
tp3515
a(S'bombings'
p3516
I1
tp3517
a(S'without'
p3518
I1
tp3519
a(S'forces'
p3520
I1
tp3521
a(S'ground'
p3522
I1
tp3523
a(S'Fashion'
p3524
I4
tp3525
a(S'Style'
p3526
I6
tp3527
a(S'Modern'
p3528
I1
tp3529
a(S'Love'
p3530
I3
tp3531
a(g2518
I10
tp3532
a(S'Bouquet'
p3533
I1
tp3534
a(S'Fleeting'
p3535
I1
tp3536
a(S'Beauty'
p3537
I1
tp3538
a(S'Please'
p3539
I2
tp3540
a(S'Opinion'
p3541
I12
tp3542
a(S'OpEd'
p3543
I7
tp3544
a(S'Could'
p3545
I5
tp3546
a(S'Paris'
p3547
I19
tp3548
a(S'Happen'
p3549
I3
tp3550
a(S'Here'
p3551
I3
tp3552
a(S'Food'
p3553
I7
tp3554
a(S'Plan'
p3555
I4
tp3556
a(S'Menu'
p3557
I2
tp3558
a(S'Thanksgiving'
p3559
I5
tp3560
a(S'2015'
p3561
I2
tp3562
a(S'Sections'
p3563
I3
tp3564
a(S'World'
p3565
I5
tp3566
a(S'raquo'
p3567
I34
tp3568
a(S'Police'
p3569
I5
tp3570
a(S'Raids'
p3571
I1
tp3572
a(S'France'
p3573
I3
tp3574
a(S'Belgium'
p3575
I1
tp3576
a(S'Seek'
p3577
I1
tp3578
a(S'Paris'
p3579
I19
tp3580
a(S'Attack'
p3581
I3
tp3582
a(S'Suspects'
p3583
I1
tp3584
a(S'France'
p3585
I3
tp3586
a(S'Strikes'
p3587
I2
tp3588
a(S'ISIS'
p3589
I9
tp3590
a(S'Targets'
p3591
I2
tp3592
a(S'Syria'
p3593
I5
tp3594
a(S'Retaliation'
p3595
I1
tp3596
a(S'Attacks'
p3597
I4
tp3598
a(S'Inquiry'
p3599
I1
tp3600
a(S'Finds'
p3601
I1
tp3602
a(S'Mounting'
p3603
I1
tp3604
a(S'Proof'
p3605
I1
tp3606
a(S'Syria'
p3607
I5
tp3608
a(S'Link'
p3609
I1
tp3610
a(S'Paris'
p3611
I19
tp3612
a(S'Attacks'
p3613
I4
tp3614
a(S'Business'
p3615
I4
tp3616
a(S'Day'
p3617
I3
tp3618
a(S'raquo'
p3619
I34
tp3620
a(S'Iowa'
p3621
I1
tp3622
a(S'TV'
p3623
I3
tp3624
a(S'Gets'
p3625
I2
tp3626
a(S'Its'
p3627
I3
tp3628
a(S'CloseUp'
p3629
I1
tp3630
a(S'Enjoying'
p3631
I1
tp3632
a(S'Outsize'
p3633
I1
tp3634
a(S'Influence'
p3635
I1
tp3636
a(S'The'
p3637
I34
tp3638
a(S'Week'
p3639
I3
tp3640
a(S'Ahead'
p3641
I1
tp3642
a(S'Retailers\xe2\x80\x99'
p3643
I1
tp3644
a(S'Earnings'
p3645
I1
tp3646
a(S'Star'
p3647
I1
tp3648
a(S'Wars'
p3649
I1
tp3650
a(S'Battlefront'
p3651
I1
tp3652
a(S'Video'
p3653
I7
tp3654
a(S'Game'
p3655
I1
tp3656
a(S'2'
p3657
I1
tp3658
a(S'Technology'
p3659
I2
tp3660
a(S'IPOs'
p3661
I1
tp3662
a(S'Marriott'
p3663
I2
tp3664
a(S'Buy'
p3665
I2
tp3666
a(S'Starwood'
p3667
I2
tp3668
a(S'Hotels'
p3669
I2
tp3670
a(S'Opinion'
p3671
I12
tp3672
a(S'raquo'
p3673
I34
tp3674
a(S'OpEd'
p3675
I7
tp3676
a(S'Contributors'
p3677
I2
tp3678
a(S'Could'
p3679
I5
tp3680
a(S'Paris'
p3681
I19
tp3682
a(S'Happen'
p3683
I3
tp3684
a(S'Here'
p3685
I3
tp3686
a(S'Editorial'
p3687
I3
tp3688
a(S'What'
p3689
I5
tp3690
a(S'Will'
p3691
I2
tp3692
a(S'Come'
p3693
I2
tp3694
a(S'After'
p3695
I3
tp3696
a(S'Paris'
p3697
I19
tp3698
a(S'Frank'
p3699
I2
tp3700
a(S'Bruni'
p3701
I2
tp3702
a(S'The'
p3703
I34
tp3704
a(S'Exploitation'
p3705
I2
tp3706
a(S'Paris'
p3707
I19
tp3708
a(S'US'
p3709
I7
tp3710
a(S'raquo'
p3711
I34
tp3712
a(S'Police'
p3713
I5
tp3714
a(S'Block'
p3715
I2
tp3716
a(S'Streets'
p3717
I2
tp3718
a(S'Near'
p3719
I2
tp3720
a(S'White'
p3721
I2
tp3722
a(S'House'
p3723
I2
tp3724
a(S'Because'
p3725
I1
tp3726
a(S'\xe2\x80\x98Barricaded'
p3727
I1
tp3728
a(S'Person\xe2\x80\x99'
p3729
I1
tp3730
a(S'Political'
p3731
I2
tp3732
a(S'Memo'
p3733
I2
tp3734
a(S'In'
p3735
I9
tp3736
a(S'Presidential'
p3737
I2
tp3738
a(S'Campaign'
p3739
I3
tp3740
a(S'It\xe2\x80\x99s'
p3741
I2
tp3742
a(S'Now'
p3743
I8
tp3744
a(S'Terrorism'
p3745
I2
tp3746
a(S'Not'
p3747
I5
tp3748
a(S'Taxes'
p3749
I2
tp3750
a(S'ForProfit'
p3751
I2
tp3752
a(S'College'
p3753
I4
tp3754
a(S'System'
p3755
I2
tp3756
a(S'Expected'
p3757
I2
tp3758
a(S'Pay'
p3759
I2
tp3760
a(S'Millions'
p3761
I2
tp3762
a(S'Technology'
p3763
I2
tp3764
a(S'raquo'
p3765
I34
tp3766
a(S'Technophoria'
p3767
I2
tp3768
a(S'The'
p3769
I34
tp3770
a(S'War'
p3771
I3
tp3772
a(S'Campus'
p3773
I2
tp3774
a(S'Sexual'
p3775
I2
tp3776
a(S'Assault'
p3777
I2
tp3778
a(S'Goes'
p3779
I2
tp3780
a(S'Digital'
p3781
I3
tp3782
a(S'IBM\xe2\x80\x99s'
p3783
I2
tp3784
a(S'DesignCentered'
p3785
I1
tp3786
a(S'Strategy'
p3787
I1
tp3788
a(S'Set'
p3789
I2
tp3790
a(S'Free'
p3791
I1
tp3792
a(S'Squares'
p3793
I1
tp3794
a(S'IBM\xe2\x80\x99s'
p3795
I2
tp3796
a(S'Century'
p3797
I1
tp3798
a(S'Innovation'
p3799
I1
tp3800
a(S'Arts'
p3801
I8
tp3802
a(S'raquo'
p3803
I34
tp3804
a(S'For'
p3805
I5
tp3806
a(S'Spike'
p3807
I3
tp3808
a(S'Lee'
p3809
I3
tp3810
a(S'an'
p3811
I11
tp3812
a(S'Honorary'
p3813
I3
tp3814
a(S'Oscar'
p3815
I4
tp3816
a(S'Diversity'
p3817
I3
tp3818
a(S'Takes'
p3819
I3
tp3820
a(S'Center'
p3821
I2
tp3822
a(S'Stage'
p3823
I4
tp3824
a(S'Review'
p3825
I11
tp3826
a(S'In'
p3827
I9
tp3828
a(S'\xe2\x80\x98Misery\xe2\x80\x99'
p3829
I2
tp3830
a(S'With'
p3831
I4
tp3832
a(S'Bruce'
p3833
I3
tp3834
a(S'Willis'
p3835
I2
tp3836
a(S'Laurie'
p3837
I2
tp3838
a(S'Metcalf'
p3839
I2
tp3840
a(S'Ghost'
p3841
I2
tp3842
a(S'Productions'
p3843
I2
tp3844
a(S'Past'
p3845
I4
tp3846
a(S'Beneath'
p3847
I2
tp3848
a(S'New'
p3849
I13
tp3850
a(S'York'
p3851
I10
tp3852
a(S'Public'
p3853
I4
tp3854
a(S'Library'
p3855
I2
tp3856
a(S'Shelving'
p3857
I2
tp3858
a(S'Its'
p3859
I3
tp3860
a(S'Past'
p3861
I4
tp3862
a(S'HighTech'
p3863
I2
tp3864
a(S'Research'
p3865
I2
tp3866
a(S'Stacks'
p3867
I2
tp3868
a(S'Politics'
p3869
I3
tp3870
a(S'raquo'
p3871
I34
tp3872
a(S'First'
p3873
I2
tp3874
a(S'Draft'
p3875
I1
tp3876
a(S'Paris'
p3877
I19
tp3878
a(S'Attacks'
p3879
I4
tp3880
a(S'Could'
p3881
I5
tp3882
a(S'Bolster'
p3883
I1
tp3884
a(S'Congressional'
p3885
I1
tp3886
a(S'Efforts'
p3887
I1
tp3888
a(S'Block'
p3889
I2
tp3890
a(S'US'
p3891
I7
tp3892
a(S'Refugee'
p3893
I1
tp3894
a(S'Plan'
p3895
I4
tp3896
a(S'Editorial'
p3897
I3
tp3898
a(S'Questions'
p3899
I1
tp3900
a(S'President'
p3901
I1
tp3902
a(S'Obama\xe2\x80\x99s'
p3903
I1
tp3904
a(S'Nominee'
p3905
I1
tp3906
a(S'lead'
p3907
I1
tp3908
a(S'FDA'
p3909
I1
tp3910
a(S'Paul'
p3911
I1
tp3912
a(S'Krugman'
p3913
I2
tp3914
a(S'Fearing'
p3915
I2
tp3916
a(S'Fear'
p3917
I2
tp3918
a(S'Itself'
p3919
I2
tp3920
a(S'Fashion'
p3921
I4
tp3922
a(S'Style'
p3923
I6
tp3924
a(S'raquo'
p3925
I34
tp3926
a(S'Table'
p3927
I1
tp3928
a(S'Three'
p3929
I2
tp3930
a(S'Ruth'
p3931
I1
tp3932
a(S'Bader'
p3933
I1
tp3934
a(S'Ginsburg'
p3935
I1
tp3936
a(S'Gloria'
p3937
I1
tp3938
a(S'Steinem'
p3939
I1
tp3940
a(S'Unending'
p3941
I1
tp3942
a(S'Fight'
p3943
I1
tp3944
a(S'Women\xe2\x80\x99s'
p3945
I1
tp3946
a(S'Rights'
p3947
I1
tp3948
a(S'MaryLouise'
p3949
I1
tp3950
a(S'Parker'
p3951
I1
tp3952
a(S'Life'
p3953
I1
tp3954
a(S'With'
p3955
I4
tp3956
a(S'Without'
p3957
I1
tp3958
a(S'Men'
p3959
I1
tp3960
a(S'Meet'
p3961
I2
tp3962
a(S'Instamom'
p3963
I2
tp3964
a(S'Stage'
p3965
I4
tp3966
a(S'Mother'
p3967
I1
tp3968
a(S'Social'
p3969
I2
tp3970
a(S'Media'
p3971
I2
tp3972
a(S'Movies'
p3973
I2
tp3974
a(S'raquo'
p3975
I34
tp3976
a(S'For'
p3977
I5
tp3978
a(S'Spike'
p3979
I3
tp3980
a(S'Lee'
p3981
I3
tp3982
a(S'an'
p3983
I11
tp3984
a(S'Honorary'
p3985
I3
tp3986
a(S'Oscar'
p3987
I4
tp3988
a(S'Diversity'
p3989
I3
tp3990
a(S'Takes'
p3991
I3
tp3992
a(S'Center'
p3993
I2
tp3994
a(S'Stage'
p3995
I4
tp3996
a(S'Review'
p3997
I11
tp3998
a(S'\xe2\x80\x98Prem'
p3999
I1
tp4000
a(S'Ratan'
p4001
I1
tp4002
a(S'Dhan'
p4003
I1
tp4004
a(S'Payo\xe2\x80\x99'
p4005
I1
tp4006
a(S'Bollywood'
p4007
I1
tp4008
a(S'Tale'
p4009
I2
tp4010
a(S'PrinceandPlebe'
p4011
I1
tp4012
a(S'Double'
p4013
I1
tp4014
a(S'What'
p4015
I5
tp4016
a(S'It'
p4017
I2
tp4018
a(S'Takes'
p4019
I3
tp4020
a(S'Save'
p4021
I2
tp4022
a(S'Mockingjay'
p4023
I1
tp4024
a(S'New'
p4025
I13
tp4026
a(S'York'
p4027
I10
tp4028
a(S'raquo'
p4029
I34
tp4030
a(S'Issues'
p4031
I1
tp4032
a(S'That'
p4033
I1
tp4034
a(S'Could'
p4035
I5
tp4036
a(S'Arise'
p4037
I1
tp4038
a(S'3rd'
p4039
I1
tp4040
a(S'Week'
p4041
I3
tp4042
a(S'Sheldon'
p4043
I1
tp4044
a(S'Silver\xe2\x80\x99s'
p4045
I1
tp4046
a(S'Trial'
p4047
I2
tp4048
a(S'Q'
p4049
I1
tp4050
a(S'A'
p4051
I10
tp4052
a(S'The'
p4053
I34
tp4054
a(S'Trial'
p4055
I2
tp4056
a(S'Dean'
p4057
I2
tp4058
a(S'Adam'
p4059
I1
tp4060
a(S'Skelos'
p4061
I1
tp4062
a(S'Marchers'
p4063
I1
tp4064
a(S'Warn'
p4065
I1
tp4066
a(S'Safety'
p4067
I1
tp4068
a(S'Crisis'
p4069
I1
tp4070
a(S'Amid'
p4071
I1
tp4072
a(S'Spate'
p4073
I1
tp4074
a(S'Pedestrian'
p4075
I1
tp4076
a(S'Deaths'
p4077
I1
tp4078
a(S'New'
p4079
I13
tp4080
a(S'York'
p4081
I10
tp4082
a(S'Sports'
p4083
I4
tp4084
a(S'raquo'
p4085
I34
tp4086
a(S'Patriots'
p4087
I2
tp4088
a(S'27'
p4089
I1
tp4090
a(S'Giants'
p4091
I2
tp4092
a(S'26'
p4093
I1
tp4094
a(g2518
I10
tp4095
a(S'Strip'
p4096
I1
tp4097
a(g2518
I10
tp4098
a(S'Drop'
p4099
I1
tp4100
a(S'Then'
p4101
I1
tp4102
a(S'a\xc2\xa0Giants'
p4103
I1
tp4104
a(S'Win'
p4105
I2
tp4106
a(S'Over'
p4107
I2
tp4108
a(S'the\xc2\xa0Patriots'
p4109
I1
tp4110
a(S'Slips'
p4111
I1
tp4112
a(S'Away'
p4113
I1
tp4114
a(S'Patriots\xe2\x80\x99'
p4115
I1
tp4116
a(S'Plan'
p4117
I4
tp4118
a(S'Play'
p4119
I3
tp4120
a(S'Hard'
p4121
I1
tp4122
a(S'60'
p4123
I1
tp4124
a(S'Minutes'
p4125
I1
tp4126
a(S'Pays'
p4127
I1
tp4128
a(S'Off'
p4129
I1
tp4130
a(S'Final'
p4131
I1
tp4132
a(S'Ones'
p4133
I1
tp4134
a(S'Monday\xe2\x80\x99s'
p4135
I1
tp4136
a(S'Matchup'
p4137
I1
tp4138
a(S'Texans'
p4139
I1
tp4140
a(S'35'
p4141
I1
tp4142
a(S'Bengals'
p4143
I1
tp4144
a(S'80'
p4145
I1
tp4146
a(S'Theater'
p4147
I3
tp4148
a(S'raquo'
p4149
I34
tp4150
a(S'Review'
p4151
I11
tp4152
a(S'In'
p4153
I9
tp4154
a(S'\xe2\x80\x98Misery\xe2\x80\x99'
p4155
I2
tp4156
a(S'With'
p4157
I4
tp4158
a(S'Bruce'
p4159
I3
tp4160
a(S'Willis'
p4161
I2
tp4162
a(S'Laurie'
p4163
I2
tp4164
a(S'Metcalf'
p4165
I2
tp4166
a(S'Ghost'
p4167
I2
tp4168
a(S'Productions'
p4169
I2
tp4170
a(S'Past'
p4171
I4
tp4172
a(S'Joel'
p4173
I1
tp4174
a(S'Schumacher'
p4175
I1
tp4176
a(S'Directing'
p4177
I1
tp4178
a(S'\xe2\x80\x98Neighborhood'
p4179
I1
tp4180
a(S'3\xe2\x80\x99'
p4181
I1
tp4182
a(S'Gets'
p4183
I2
tp4184
a(S'an'
p4185
I11
tp4186
a(S'Education'
p4187
I5
tp4188
a(S'Review'
p4189
I11
tp4190
a(S'\xe2\x80\x98Incident'
p4191
I1
tp4192
a(S'Vichy\xe2\x80\x99'
p4193
I1
tp4194
a(S'an'
p4195
I11
tp4196
a(S'Arthur'
p4197
I1
tp4198
a(S'Miller'
p4199
I1
tp4200
a(S'Tale'
p4201
I2
tp4202
a(S'Set'
p4203
I2
tp4204
a(S'World'
p4205
I5
tp4206
a(S'War'
p4207
I3
tp4208
a(S'II'
p4209
I1
tp4210
a(S'Science'
p4211
I3
tp4212
a(S'raquo'
p4213
I34
tp4214
a(S'Plan'
p4215
I4
tp4216
a(S'Export'
p4217
I1
tp4218
a(S'Chimps'
p4219
I1
tp4220
a(S'Tests'
p4221
I1
tp4222
a(S'Law'
p4223
I1
tp4224
a(S'Protect'
p4225
I1
tp4226
a(S'Species'
p4227
I1
tp4228
a(S'Matter'
p4229
I1
tp4230
a(S'After'
p4231
I3
tp4232
a(S'Mass'
p4233
I1
tp4234
a(S'Extinction'
p4235
I1
tp4236
a(S'Only'
p4237
I1
tp4238
a(S'Small'
p4239
I1
tp4240
a(S'Survive'
p4241
I2
tp4242
a(S'Obituaries'
p4243
I2
tp4244
a(S'raquo'
p4245
I34
tp4246
a(S'Robert'
p4247
I1
tp4248
a(S'Craft'
p4249
I1
tp4250
a(S'Stravinsky'
p4251
I1
tp4252
a(S'Adviser'
p4253
I1
tp4254
a(S'Steward'
p4255
I1
tp4256
a(S'Dies'
p4257
I4
tp4258
a(S'92'
p4259
I1
tp4260
a(S'Bruce'
p4261
I3
tp4262
a(S'B'
p4263
I3
tp4264
a(S'Dayton'
p4265
I1
tp4266
a(S'Minnesota'
p4267
I1
tp4268
a(S'Retailer'
p4269
I1
tp4270
a(S'Arts'
p4271
I8
tp4272
a(S'Patron'
p4273
I1
tp4274
a(S'Dies'
p4275
I4
tp4276
a(S'97'
p4277
I1
tp4278
a(S'Tim'
p4279
I1
tp4280
a(S'Valentine'
p4281
I1
tp4282
a(S'SixTerm'
p4283
I1
tp4284
a(S'Congressman'
p4285
I1
tp4286
a(S'From'
p4287
I6
tp4288
a(S'North'
p4289
I1
tp4290
a(S'Carolina'
p4291
I1
tp4292
a(S'Dies'
p4293
I4
tp4294
a(S'89'
p4295
I1
tp4296
a(S'Television'
p4297
I2
tp4298
a(S'raquo'
p4299
I34
tp4300
a(S'Review'
p4301
I11
tp4302
a(S'\xe2\x80\x98The'
p4303
I3
tp4304
a(S'Latin'
p4305
I1
tp4306
a(S'Explosion'
p4307
I1
tp4308
a(g2518
I10
tp4309
a(S'New'
p4310
I13
tp4311
a(S'America\xe2\x80\x99'
p4312
I1
tp4313
a(S'HBO'
p4314
I1
tp4315
a(S'Is'
p4316
I5
tp4317
a(S'Music'
p4318
I2
tp4319
a(S'Civics'
p4320
I1
tp4321
a(S'Lesson'
p4322
I1
tp4323
a(S'\xe2\x80\x98The'
p4324
I3
tp4325
a(S'Art'
p4326
I3
tp4327
a(S'More\xe2\x80\x99'
p4328
I1
tp4329
a(S'Crackle'
p4330
I1
tp4331
a(S'Reveals'
p4332
I1
tp4333
a(S'Ugly'
p4334
I1
tp4335
a(S'Side'
p4336
I2
tp4337
a(S'Pretty'
p4338
I1
tp4339
a(S'Things'
p4340
I1
tp4341
a(S'Aziz'
p4342
I1
tp4343
a(S'Ansari'
p4344
I1
tp4345
a(S'Acting'
p4346
I1
tp4347
a(S'Race'
p4348
I2
tp4349
a(S'Hollywood'
p4350
I1
tp4351
a(S'Health'
p4352
I7
tp4353
a(S'raquo'
p4354
I34
tp4355
a(S'Personal'
p4356
I1
tp4357
a(S'Health'
p4358
I7
tp4359
a(S'Assessing'
p4360
I1
tp4361
a(S'Fitness'
p4362
I1
tp4363
a(S'Wearable'
p4364
I1
tp4365
a(S'Tech'
p4366
I3
tp4367
a(S'Well'
p4368
I2
tp4369
a(S'Five'
p4370
I1
tp4371
a(S'Ways'
p4372
I1
tp4373
a(S'Your'
p4374
I5
tp4375
a(S'Smartphone'
p4376
I1
tp4377
a(S'Can'
p4378
I2
tp4379
a(S'Help'
p4380
I2
tp4381
a(S'Your'
p4382
I5
tp4383
a(S'Health'
p4384
I7
tp4385
a(S'Well'
p4386
I2
tp4387
a(S'Feeling'
p4388
I1
tp4389
a(S'Woozy'
p4390
I1
tp4391
a(S'It'
p4392
I2
tp4393
a(S'May'
p4394
I1
tp4395
a(S'Be'
p4396
I2
tp4397
a(S'Cyber'
p4398
I1
tp4399
a(S'Sickness'
p4400
I1
tp4401
a(S'Travel'
p4402
I4
tp4403
a(S'raquo'
p4404
I34
tp4405
a(S'In'
p4406
I9
tp4407
a(S'Transit'
p4408
I1
tp4409
a(S'Cruise'
p4410
I1
tp4411
a(S'News'
p4412
I6
tp4413
a(S'Culinary'
p4414
I1
tp4415
a(S'Sailings'
p4416
I1
tp4417
a(S'French'
p4418
I3
tp4419
a(S'Polynesia'
p4420
I1
tp4421
a(S'Ship'
p4422
I1
tp4423
a(S'Finding'
p4424
I2
tp4425
a(S'Alice\xe2\x80\x99s'
p4426
I2
tp4427
a(S'\xe2\x80\x98Wonderland\xe2\x80\x99'
p4428
I2
tp4429
a(S'Oxford'
p4430
I2
tp4431
a(S'Explorer'
p4432
I2
tp4433
a(S'Retracing'
p4434
I1
tp4435
a(S'Mother\xe2\x80\x99s'
p4436
I2
tp4437
a(S'Path'
p4438
I1
tp4439
a(S'Escape'
p4440
I1
tp4441
a(S'Along'
p4442
I1
tp4443
a(S'Wintry'
p4444
I1
tp4445
a(S'Merrimack'
p4446
I1
tp4447
a(S'Books'
p4448
I4
tp4449
a(S'raquo'
p4450
I34
tp4451
a(S'Review'
p4452
I11
tp4453
a(S'In'
p4454
I9
tp4455
a(S'\xe2\x80\x98Destiny'
p4456
I2
tp4457
a(S'Power\xe2\x80\x99'
p4458
I2
tp4459
a(S'George'
p4460
I1
tp4461
a(S'HW'
p4462
I1
tp4463
a(S'Bush'
p4464
I2
tp4465
a(S'Epitomizes'
p4466
I1
tp4467
a(S'Vanishing'
p4468
I1
tp4469
a(S'GOP'
p4470
I1
tp4471
a(S'Audiobooks'
p4472
I1
tp4473
a(S'Mindy'
p4474
I1
tp4475
a(S'Kaling\xe2\x80\x99s'
p4476
I1
tp4477
a(S'\xe2\x80\x98Why'
p4478
I1
tp4479
a(S'Not'
p4480
I5
tp4481
a(S'Me\xe2\x80\x99'
p4482
I1
tp4483
a(S'Beneath'
p4484
I2
tp4485
a(S'New'
p4486
I13
tp4487
a(S'York'
p4488
I10
tp4489
a(S'Public'
p4490
I4
tp4491
a(S'Library'
p4492
I2
tp4493
a(S'Shelving'
p4494
I2
tp4495
a(S'Its'
p4496
I3
tp4497
a(S'Past'
p4498
I4
tp4499
a(S'HighTech'
p4500
I2
tp4501
a(S'Research'
p4502
I2
tp4503
a(S'Stacks'
p4504
I2
tp4505
a(S'Education'
p4506
I5
tp4507
a(S'raquo'
p4508
I34
tp4509
a(S'Yale'
p4510
I1
tp4511
a(S'College'
p4512
I4
tp4513
a(S'Dean'
p4514
I2
tp4515
a(S'Torn'
p4516
I1
tp4517
a(S'Racial'
p4518
I1
tp4519
a(S'Protests'
p4520
I1
tp4521
a(S'ForProfit'
p4522
I2
tp4523
a(S'College'
p4524
I4
tp4525
a(S'System'
p4526
I2
tp4527
a(S'Expected'
p4528
I2
tp4529
a(S'Pay'
p4530
I2
tp4531
a(S'Millions'
p4532
I2
tp4533
a(S'Technophoria'
p4534
I2
tp4535
a(S'The'
p4536
I34
tp4537
a(S'War'
p4538
I3
tp4539
a(S'Campus'
p4540
I2
tp4541
a(S'Sexual'
p4542
I2
tp4543
a(S'Assault'
p4544
I2
tp4545
a(S'Goes'
p4546
I2
tp4547
a(S'Digital'
p4548
I3
tp4549
a(S'Food'
p4550
I7
tp4551
a(S'raquo'
p4552
I34
tp4553
a(S'City'
p4554
I2
tp4555
a(S'Kitchen'
p4556
I1
tp4557
a(S'GlutenFree'
p4558
I1
tp4559
a(S'Not'
p4560
I5
tp4561
a(S'GuiltFree'
p4562
I1
tp4563
a(S'Thanksgiving'
p4564
I5
tp4565
a(S'Desserts'
p4566
I1
tp4567
a(g2518
I10
tp4568
a(S'Good'
p4569
I1
tp4570
a(S'Appetite'
p4571
I1
tp4572
a(S'Thanksgiving'
p4573
I5
tp4574
a(S'Vegetables'
p4575
I1
tp4576
a(S'Get'
p4577
I1
tp4578
a(S'Freshened'
p4579
I1
tp4580
a(S'Up'
p4581
I1
tp4582
a(S'Wines'
p4583
I1
tp4584
a(S'The'
p4585
I34
tp4586
a(S'Times'
p4587
I10
tp4588
a(S'FretFree'
p4589
I2
tp4590
a(S'Wine'
p4591
I2
tp4592
a(S'Options'
p4593
I2
tp4594
a(S'Thanksgiving'
p4595
I5
tp4596
a(S'Sunday'
p4597
I2
tp4598
a(S'Review'
p4599
I11
tp4600
a(S'raquo'
p4601
I34
tp4602
a(S'Roger'
p4603
I1
tp4604
a(S'Cohen'
p4605
I1
tp4606
a(S'To'
p4607
I2
tp4608
a(S'Save'
p4609
I2
tp4610
a(S'Paris'
p4611
I19
tp4612
a(S'Defeat'
p4613
I1
tp4614
a(S'ISIS'
p4615
I9
tp4616
a(S'Editorial'
p4617
I3
tp4618
a(S'Terror'
p4619
I4
tp4620
a(S'Paris'
p4621
I19
tp4622
a(S'Frank'
p4623
I2
tp4624
a(S'Bruni'
p4625
I2
tp4626
a(S'The'
p4627
I34
tp4628
a(S'Exploitation'
p4629
I2
tp4630
a(S'Paris'
p4631
I19
tp4632
a(S'Real'
p4633
I4
tp4634
a(S'Estate'
p4635
I4
tp4636
a(S'raquo'
p4637
I34
tp4638
a(S'For'
p4639
I5
tp4640
a(S'Foreign'
p4641
I1
tp4642
a(S'Buyers\xc2\xa0Family'
p4643
I1
tp4644
a(S'Homes'
p4645
I3
tp4646
a(S'Over'
p4647
I2
tp4648
a(S'Trophy'
p4649
I1
tp4650
a(S'Towers'
p4651
I1
tp4652
a(S'What'
p4653
I5
tp4654
a(g2827
I3
tp4655
a(S'Love'
p4656
I3
tp4657
a(S'At'
p4658
I2
tp4659
a(S'Camryn'
p4660
I3
tp4661
a(S'Manheim\xe2\x80\x99s'
p4662
I2
tp4663
a(S'Place'
p4664
I2
tp4665
a(S'Hope'
p4666
I2
tp4667
a(S'Joy'
p4668
I2
tp4669
a(S'Poker'
p4670
I2
tp4671
a(S'The'
p4672
I34
tp4673
a(S'Hunt'
p4674
I1
tp4675
a(S'The'
p4676
I34
tp4677
a(S'East'
p4678
I2
tp4679
a(S'Village'
p4680
I1
tp4681
a(S'Scene'
p4682
I1
tp4683
a(S'Two'
p4684
I1
tp4685
a(S'Theater'
p4686
I3
tp4687
a(S'Students'
p4688
I1
tp4689
a(S'The'
p4690
I34
tp4691
a(S'Upshot'
p4692
I1
tp4693
a(S'raquo'
p4694
I34
tp4695
a(S'The'
p4696
I34
tp4697
a(S'New'
p4698
I13
tp4699
a(S'Health'
p4700
I7
tp4701
a(S'Care'
p4702
I2
tp4703
a(S'How'
p4704
I3
tp4705
a(S'Decrease'
p4706
I1
tp4707
a(S'Prices'
p4708
I1
tp4709
a(S'an'
p4710
I11
tp4711
a(S'Expensive'
p4712
I1
tp4713
a(S'Class'
p4714
I1
tp4715
a(S'Drugs'
p4716
I1
tp4717
a(S'Economic'
p4718
I1
tp4719
a(S'View'
p4720
I2
tp4721
a(S'The'
p4722
I34
tp4723
a(S'Tax'
p4724
I1
tp4725
a(S'Code'
p4726
I2
tp4727
a(S'Can'
p4728
I2
tp4729
a(S'Be'
p4730
I2
tp4731
a(S'Simpler'
p4732
I1
tp4733
a(S'But'
p4734
I1
tp4735
a(S'Not'
p4736
I5
tp4737
a(S'Three'
p4738
I2
tp4739
a(S'Pages'
p4740
I2
tp4741
a(S'Road'
p4742
I1
tp4743
a(S'2016'
p4744
I1
tp4745
a(S'How'
p4746
I3
tp4747
a(S'Many'
p4748
I2
tp4749
a(S'Lanes'
p4750
I1
tp4751
a(S'Do'
p4752
I1
tp4753
a(S'Republicans'
p4754
I1
tp4755
a(S'Really'
p4756
I1
tp4757
a(S'Have'
p4758
I1
tp4759
a(S'Magazine'
p4760
I6
tp4761
a(S'raquo'
p4762
I34
tp4763
a(S'Poem'
p4764
I1
tp4765
a(S'\xe2\x80\x98Fall'
p4766
I1
tp4767
a(S'Song\xe2\x80\x99'
p4768
I1
tp4769
a(S'The'
p4770
I34
tp4771
a(S'Thread'
p4772
I1
tp4773
a(S'The'
p4774
I34
tp4775
a(S'11115'
p4776
I1
tp4777
a(S'Issue'
p4778
I1
tp4779
a(S'Tip'
p4780
I1
tp4781
a(S'How'
p4782
I3
tp4783
a(S'Survive'
p4784
I2
tp4785
a(S'Stampede'
p4786
I1
tp4787
a(S'Automobiles'
p4788
I2
tp4789
a(S'raquo'
p4790
I34
tp4791
a(S'Google'
p4792
I1
tp4793
a(S'Driverless'
p4794
I1
tp4795
a(S'Car'
p4796
I2
tp4797
a(S'Is'
p4798
I5
tp4799
a(S'Stopped'
p4800
I1
tp4801
a(S'California'
p4802
I1
tp4803
a(S'Police'
p4804
I5
tp4805
a(S'Going'
p4806
I1
tp4807
a(S'Too'
p4808
I2
tp4809
a(S'Slowly'
p4810
I1
tp4811
a(S'Driven'
p4812
I1
tp4813
a(S'Video'
p4814
I7
tp4815
a(S'Review'
p4816
I11
tp4817
a(S'Cadillac\xe2\x80\x99s'
p4818
I1
tp4819
a(S'ATSV'
p4820
I1
tp4821
a(S'Socially'
p4822
I1
tp4823
a(S'Refined'
p4824
I1
tp4825
a(S'Muscle'
p4826
I1
tp4827
a(S'Car'
p4828
I2
tp4829
a(S'Volkswagen'
p4830
I1
tp4831
a(S'Global'
p4832
I1
tp4833
a(S'Sales'
p4834
I1
tp4835
a(S'Fell'
p4836
I1
tp4837
a(S'5'
p4838
I3
tp4839
a(S'October'
p4840
I1
tp4841
a(g735
I3
tp4842
a(S'Magazine'
p4843
I6
tp4844
a(S'raquo'
p4845
I34
tp4846
a(S'My'
p4847
I3
tp4848
a(S'Bookshelf'
p4849
I1
tp4850
a(S'Myself'
p4851
I1
tp4852
a(S'My'
p4853
I3
tp4854
a(S'10'
p4855
I5
tp4856
a(S'Favorite'
p4857
I1
tp4858
a(S'Books'
p4859
I4
tp4860
a(S'James'
p4861
I1
tp4862
a(S'Dyson'
p4863
I1
tp4864
a(S'Food'
p4865
I7
tp4866
a(S'Matters'
p4867
I1
tp4868
a(g2518
I10
tp4869
a(S'Restaurant'
p4870
I1
tp4871
a(S'Where'
p4872
I1
tp4873
a(S'Art'
p4874
I3
tp4875
a(S'Menu'
p4876
I2
tp4877
a(S'Photography'
p4878
I2
tp4879
a(S'Getting'
p4880
I3
tp4881
a(S'Hot'
p4882
I1
tp4883
a(S'Heavy'
p4884
I1
tp4885
a(S'1980s'
p4886
I1
tp4887
a(S'Times'
p4888
I10
tp4889
a(S'Insider'
p4890
I3
tp4891
a(S'raquo'
p4892
I34
tp4893
a(S'Readers'
p4894
I4
tp4895
a(S'React'
p4896
I1
tp4897
a(S'Readers'
p4898
I4
tp4899
a(S'Respond'
p4900
I3
tp4901
a(S'Alabama'
p4902
I3
tp4903
a(S'8YearOld'
p4904
I3
tp4905
a(S'Accused'
p4906
I3
tp4907
a(S'Killing'
p4908
I3
tp4909
a(S'Toddler'
p4910
I3
tp4911
a(S'Enough'
p4912
I4
tp4913
a(S'Is'
p4914
I5
tp4915
a(S'Enough'
p4916
I4
tp4917
a(S'The'
p4918
I34
tp4919
a(S'Last'
p4920
I2
tp4921
a(S'Word'
p4922
I2
tp4923
a(S'From'
p4924
I6
tp4925
a(S'Mark'
p4926
I2
tp4927
a(S'Bittman'
p4928
I2
tp4929
a(S'For'
p4930
I5
tp4931
a(S'Now'
p4932
I8
tp4933
a(S'Getting'
p4934
I3
tp4935
a(S'Story'
p4936
I2
tp4937
a(S'Ted'
p4938
I3
tp4939
a(S'Cruz\xe2\x80\x99s'
p4940
I2
tp4941
a(S'Father\xe2\x80\x99s'
p4942
I2
tp4943
a(S'Role'
p4944
I2
tp4945
a(S'Cuban'
p4946
I2
tp4947
a(S'Revolution'
p4948
I2
tp4949
a(S'Real'
p4950
I4
tp4951
a(S'Estate'
p4952
I4
tp4953
a(S'raquo'
p4954
I34
tp4955
a(S'What'
p4956
I5
tp4957
a(g2827
I3
tp4958
a(S'Love'
p4959
I3
tp4960
a(S'At'
p4961
I2
tp4962
a(S'Camryn'
p4963
I3
tp4964
a(S'Manheim\xe2\x80\x99s'
p4965
I2
tp4966
a(S'Place'
p4967
I2
tp4968
a(S'Hope'
p4969
I2
tp4970
a(S'Joy'
p4971
I2
tp4972
a(S'Poker'
p4973
I2
tp4974
a(S'By'
p4975
I12
tp4976
a(S'JOANNE'
p4977
I1
tp4978
a(S'KAUFMAN'
p4979
I1
tp4980
a(S'The'
p4981
I34
tp4982
a(S'actress'
p4983
I1
tp4984
a(S'Camryn'
p4985
I3
tp4986
a(S'Manheim'
p4987
I1
tp4988
a(S'has'
p4989
I4
tp4990
a(S'longheld'
p4991
I1
tp4992
a(S'loft'
p4993
I1
tp4994
a(S'Lower'
p4995
I1
tp4996
a(S'East'
p4997
I2
tp4998
a(S'Side'
p4999
I2
tp5000
a(S'More'
p5001
I4
tp5002
a(S'Articles'
p5003
I2
tp5004
a(S'Series'
p5005
I2
tp5006
a(S'Search'
p5007
I4
tp5008
a(S'Homes'
p5009
I3
tp5010
a(S'Sale'
p5011
I3
tp5012
a(S'Rent'
p5013
I1
tp5014
a(S'Sell'
p5015
I1
tp5016
a(S'Your'
p5017
I5
tp5018
a(S'Home'
p5019
I3
tp5020
a(S'nbsp'
p5021
I1
tp5022
a(S'On'
p5023
I1
tp5024
a(S'Market'
p5025
I1
tp5026
a(S'Homes'
p5027
I3
tp5028
a(S'Sale'
p5029
I3
tp5030
a(S'New'
p5031
I13
tp5032
a(S'York'
p5033
I10
tp5034
a(S'New'
p5035
I13
tp5036
a(S'Jersey'
p5037
I1
tp5038
a(S'This'
p5039
I1
tp5040
a(S'week\xe2\x80\x99s'
p5041
I1
tp5042
a(S'properties'
p5043
I1
tp5044
a(S'include'
p5045
I1
tp5046
a(S'fivebedroom'
p5047
I1
tp5048
a(S'Hamilton'
p5049
I1
tp5050
a(S'NJ'
p5051
I1
tp5052
a(S'fourbedroom'
p5053
I1
tp5054
a(S'Lloyd'
p5055
I1
tp5056
a(S'Neck'
p5057
I1
tp5058
a(S'NY'
p5059
I4
tp5060
a(S'More'
p5061
I4
tp5062
a(S'Articles'
p5063
I2
tp5064
a(S'Series'
p5065
I2
tp5066
a(S'Most'
p5067
I1
tp5068
a(S'EmailedMost'
p5069
I1
tp5070
a(S'ViewedRecommended'
p5071
I1
tp5072
a(S'you'
p5073
I2
tp5074
a(S'Loading'
p5075
I2
tp5076
a(S'Go'
p5077
I4
tp5078
a(S'Home'
p5079
I3
tp5080
a(S'Page'
p5081
I1
tp5082
a(S'raquo'
p5083
I34
tp5084
a(S'Site'
p5085
I3
tp5086
a(S'Index'
p5087
I1
tp5088
a(S'The'
p5089
I34
tp5090
a(S'New'
p5091
I13
tp5092
a(S'York'
p5093
I10
tp5094
a(S'Times'
p5095
I10
tp5096
a(S'windowmagnumwriteLogosmall'
p5097
I1
tp5098
a(S'httpa1nytcomassetshomepage20151113101625imagesfoundationlogos'
p5099
I1
tp5100
a(S'standard'
p5101
I1
tp5102
a(S'siteindexbrandinglink'
p5103
I1
tp5104
a(S'News'
p5105
I6
tp5106
a(S'World'
p5107
I5
tp5108
a(S'US'
p5109
I7
tp5110
a(S'Politics'
p5111
I3
tp5112
a(S'NY'
p5113
I4
tp5114
a(S'Business'
p5115
I4
tp5116
a(S'Tech'
p5117
I3
tp5118
a(S'Science'
p5119
I3
tp5120
a(S'Health'
p5121
I7
tp5122
a(S'Sports'
p5123
I4
tp5124
a(S'Education'
p5125
I5
tp5126
a(S'Obituaries'
p5127
I2
tp5128
a(S'Todays'
p5129
I3
tp5130
a(S'Paper'
p5131
I1
tp5132
a(S'Corrections'
p5133
I1
tp5134
a(S'Opinion'
p5135
I12
tp5136
a(S'Todays'
p5137
I3
tp5138
a(S'Opinion'
p5139
I12
tp5140
a(S'OpEd'
p5141
I7
tp5142
a(S'Columnists'
p5143
I2
tp5144
a(S'Editorials'
p5145
I1
tp5146
a(S'Contributing'
p5147
I1
tp5148
a(S'Writers'
p5149
I1
tp5150
a(S'OpEd'
p5151
I7
tp5152
a(S'Contributors'
p5153
I2
tp5154
a(S'Opinionator'
p5155
I1
tp5156
a(S'Letters'
p5157
I2
tp5158
a(S'Sunday'
p5159
I2
tp5160
a(S'Review'
p5161
I11
tp5162
a(S'Taking'
p5163
I1
tp5164
a(S'Note'
p5165
I1
tp5166
a(S'Room'
p5167
I2
tp5168
a(S'Debate'
p5169
I2
tp5170
a(S'Public'
p5171
I4
tp5172
a(S'Editor'
p5173
I2
tp5174
a(S'Video'
p5175
I7
tp5176
a(S'Opinion'
p5177
I12
tp5178
a(S'Arts'
p5179
I8
tp5180
a(S'Todays'
p5181
I3
tp5182
a(S'Arts'
p5183
I8
tp5184
a(S'Art'
p5185
I3
tp5186
a(S'Design'
p5187
I1
tp5188
a(S'ArtsBeat'
p5189
I1
tp5190
a(S'Books'
p5191
I4
tp5192
a(S'Dance'
p5193
I1
tp5194
a(S'Movies'
p5195
I2
tp5196
a(S'Music'
p5197
I2
tp5198
a(S'NYC'
p5199
I3
tp5200
a(S'Events'
p5201
I3
tp5202
a(S'Guide'
p5203
I4
tp5204
a(S'Television'
p5205
I2
tp5206
a(S'Theater'
p5207
I3
tp5208
a(S'Video'
p5209
I7
tp5210
a(S'Games'
p5211
I1
tp5212
a(S'Video'
p5213
I7
tp5214
a(S'Arts'
p5215
I8
tp5216
a(S'Living'
p5217
I1
tp5218
a(S'Automobiles'
p5219
I2
tp5220
a(S'Crossword'
p5221
I4
tp5222
a(S'Food'
p5223
I7
tp5224
a(S'Education'
p5225
I5
tp5226
a(S'Fashion'
p5227
I4
tp5228
a(S'Style'
p5229
I6
tp5230
a(S'Health'
p5231
I7
tp5232
a(S'Jobs'
p5233
I1
tp5234
a(S'Magazine'
p5235
I6
tp5236
a(S'NYC'
p5237
I3
tp5238
a(S'Events'
p5239
I3
tp5240
a(S'Guide'
p5241
I4
tp5242
a(S'Real'
p5243
I4
tp5244
a(S'Estate'
p5245
I4
tp5246
a(g735
I3
tp5247
a(S'Magazine'
p5248
I6
tp5249
a(S'Travel'
p5250
I4
tp5251
a(S'Weddings'
p5252
I1
tp5253
a(S'Celebrations'
p5254
I1
tp5255
a(S'Listings'
p5256
I2
tp5257
a(S'More'
p5258
I4
tp5259
a(S'Classifieds'
p5260
I1
tp5261
a(S'Tools'
p5262
I1
tp5263
a(S'Services'
p5264
I1
tp5265
a(S'Times'
p5266
I10
tp5267
a(S'Topics'
p5268
I1
tp5269
a(S'Public'
p5270
I4
tp5271
a(S'Editor'
p5272
I2
tp5273
a(S'NYC'
p5274
I3
tp5275
a(S'Events'
p5276
I3
tp5277
a(S'Guide'
p5278
I4
tp5279
a(S'TV'
p5280
I3
tp5281
a(S'Listings'
p5282
I2
tp5283
a(S'Blogs'
p5284
I1
tp5285
a(S'Multimedia'
p5286
I2
tp5287
a(S'Photography'
p5288
I2
tp5289
a(S'Video'
p5290
I7
tp5291
a(S'NYT'
p5292
I2
tp5293
a(S'Store'
p5294
I1
tp5295
a(S'Times'
p5296
I10
tp5297
a(S'Journeys'
p5298
I1
tp5299
a(S'Subscribe'
p5300
I3
tp5301
a(S'Manage'
p5302
I1
tp5303
a(S'My'
p5304
I3
tp5305
a(S'Account'
p5306
I1
tp5307
a(S'Subscribe'
p5308
I3
tp5309
a(S'Subscribe'
p5310
I3
tp5311
a(S'Times'
p5312
I10
tp5313
a(S'Insider'
p5314
I3
tp5315
a(S'Home'
p5316
I3
tp5317
a(S'Delivery'
p5318
I1
tp5319
a(S'Digital'
p5320
I3
tp5321
a(S'Subscriptions'
p5322
I5
tp5323
a(S'NYT'
p5324
I2
tp5325
a(S'Opinion'
p5326
I12
tp5327
a(S'Crossword'
p5328
I4
tp5329
a(S'Email'
p5330
I1
tp5331
a(S'Newsletters'
p5332
I1
tp5333
a(S'Alerts'
p5334
I1
tp5335
a(S'Gift'
p5336
I3
tp5337
a(S'Subscriptions'
p5338
I5
tp5339
a(S'Corporate'
p5340
I1
tp5341
a(S'Subscriptions'
p5342
I5
tp5343
a(S'Education'
p5344
I5
tp5345
a(S'Rate'
p5346
I1
tp5347
a(S'Mobile'
p5348
I2
tp5349
a(S'Applications'
p5350
I1
tp5351
a(S'Replica'
p5352
I1
tp5353
a(S'Edition'
p5354
I1
tp5355
a(S'International'
p5356
I2
tp5357
a(S'New'
p5358
I13
tp5359
a(S'York'
p5360
I10
tp5361
a(S'Times'
p5362
I10
tp5363
a(S'copy'
p5364
I1
tp5365
a(S'2015'
p5366
I2
tp5367
a(S'The'
p5368
I34
tp5369
a(S'New'
p5370
I13
tp5371
a(S'York'
p5372
I10
tp5373
a(S'Times'
p5374
I10
tp5375
a(S'Company'
p5376
I1
tp5377
a(S'Contact'
p5378
I1
tp5379
a(S'Us'
p5380
I2
tp5381
a(S'Work'
p5382
I1
tp5383
a(S'With'
p5384
I4
tp5385
a(S'Us'
p5386
I2
tp5387
a(S'Advertise'
p5388
I1
tp5389
a(S'Your'
p5390
I5
tp5391
a(S'Ad'
p5392
I1
tp5393
a(S'Choices'
p5394
I1
tp5395
a(S'Privacy'
p5396
I1
tp5397
a(S'Terms'
p5398
I2
tp5399
a(S'Service'
p5400
I1
tp5401
a(S'Terms'
p5402
I2
tp5403
a(S'Sale'
p5404
I3
tp5405
a(S'Site'
p5406
I3
tp5407
a(S'Map'
p5408
I1
tp5409
a(S'Help'
p5410
I2
tp5411
a(S'Site'
p5412
I3
tp5413
a(S'Feedback'
p5414
I1
tp5415
a(S'Subscriptions'
p5416
I5
tp5417
a(S'View'
p5418
I2
tp5419
a(S'Mobile'
p5420
I2
tp5421
a(S'Version'
p5422
I1
tp5423
a(S'requirefoundationmain'
p5424
I4
tp5425
a(S'function'
p5426
I14
tp5427
a(S'requirehomepagemain'
p5428
I2
tp5429
a(S'requirejquerynyt'
p5430
I2
tp5431
a(S'foundationviewspagemanager'
p5432
I2
tp5433
a(S'function'
p5434
I14
tp5435
a(S'pageManager'
p5436
I2
tp5437
a(S'windowlocationsearchindexOfdisabletagx'
p5438
I1
tp5439
a(S'0'
p5440
I15
tp5441
a(S'return'
p5442
I4
tp5443
a(S'documentreadyfunction'
p5444
I2
tp5445
a(S'requirehttpstatic01nytcombijstagxtagxjs'
p5446
I1
tp5447
a(S'function'
p5448
I14
tp5449
a(S'pageManagertrackingFireEventQueue'
p5450
I1
tp5451
a(S'windowNREUMNREUMNREUMinfobeaconbamnrdatanetlicenseKeyb5bcf2eba4applicationID4491446transactionNameYwFXZhRYVhAEVUZcX1pLYEAPFlkTFRhCXUAqueueTime0applicationTime477ttGuidagentTokenuserAttributeserrorBeaconbamnrdatanetagentjsagentnewreliccomnr686minjs'
p5452
I1
tp5453
a.