(lp0
(S'htmloverflowautoabodyfontfamilySegoe'
p1
I1
tp2
a(S'UISegoeTahomaArialVerdanasansseriffontsizesmalltextdecorationnoneahovertextdecorationunderlineulpadding0htmlbodyhptablehpcellCenterheight100width100bordercollapsecollapsemargin0padding0backgroundcolor333border0hpcellCenterverticalalignmiddleoverflowhiddenhpswhdrpositionabsolutetop0width100schdupositionabsolutetop0height35pxlineheight35pxbottom0left0schdu'
p3
I1
tp4
a(S'lizoom1displayinlineschdu'
p5
I1
tp6
a(S'li'
p7
I14
tp8
a(S'averticalalignmiddlelineheight35px'
p9
I1
tp10
a(S'importantdisplayinlineblockhpbottomCellpositionabsolutebottom0width100hpcontainerminwidth1115pxmaxwidth1366pxwidth100minheight599pxmaxheight768pxheight100positionrelativemarginautohtml'
p11
I1
tp12
a(S'hpcontaineroverflowhiddentabletdborderspacing0border0padding0bgDivpositionabsolutetop0overflowhiddenwidth100height100backgroundrepeatnorepeatbackgroundcolor666webkitbackgroundsizecovermozbackgroundsizecoverobackgroundsizecoverbackgroundsizecoverhptextscpc'
p13
I1
tp14
a(S'li'
p15
I14
tp16
a(S'asbfootsbfoot'
p17
I1
tp18
a(S'li'
p19
I14
tp20
a(S'aulhpheadnav'
p21
I1
tp22
a(S'li'
p23
I14
tp24
a(S'afontweight400hptextfontsize13pxsbfoothpswhdrheight35pxbackgroundcolor333zindex9width100positionrelativeborder0padding0schdu'
p25
I1
tp26
a(S'divswtb'
p27
I1
tp28
a(S'h3schl1swtb'
p29
I1
tp30
a(S'lidisplayinlineswfootLswfootL'
p31
I1
tp32
a(S'acolor666swfootL'
p33
I1
tp34
a(S'sbfeedbackcolor999sbfoot'
p35
I1
tp36
a(S'asbfoot'
p37
I2
tp38
a(S'spanmargin0'
p39
I2
tp40
a(S'10pxzoom1sbfootoverflowhiddenswfootLmargin0padding0textalignrightpositionabsoluteright20pxwhitespacenowrapswfootL'
p41
I1
tp42
a(S'lilineheight32pxheight32pxdisplayinlinezoom1swtbpadding0width100height35pxmargin0fontsize13pxswtb'
p43
I1
tp44
a(S'ulmargin0padding0swtb'
p45
I1
tp46
a(S'ulschl1'
p47
I1
tp48
a(S'li'
p49
I14
tp50
a(S'azoom1scpctop25px'
p51
I1
tp52
a(S'importanthdrsplmargin0'
p53
I1
tp54
a(S'15pxcoloracacachpswhdr'
p55
I1
tp56
a(S'ul'
p57
I1
tp58
a(S'li'
p59
I14
tp60
a(S'ahovertextdecorationnonecolorfffhpswhdr'
p61
I2
tp62
a(S'liscactivefontweight700borderleftsolid'
p63
I1
tp64
a(S'1px'
p65
I2
tp66
a(S'a8b1b7borderrightsolid'
p67
I1
tp68
a(S'1px'
p69
I2
tp70
a(S'a8b1b7margin0bordernonehpswhdr'
p71
I1
tp72
a(S'liscactiveacolorffa615ulhpheadnavpaddingleft3pxulhpheadnav'
p73
I1
tp74
a(S'li'
p75
I14
tp76
a(S'amarginleft15pxmarginright15pxcoloracacaculhpheadnavliatexttransformuppercaseshhstpositionabsolutezindex4visibilityhiddenshhtowidth39pxheight39pxopacity4filteralphaopacity40background000padding1pxshhto'
p77
I1
tp78
a(S'divheight37pxwidth37pxborder1px'
p79
I1
tp80
a(S'solid'
p81
I5
tp82
a(S'ffffloatleftashhscolorffftextdecorationnonepositionabsolutedisplayblockcursorpointerzindex6lineheight14emwidth205pxpadding3px'
p83
I1
tp84
a(S'8px'
p85
I1
tp86
a(S'6pxvisibilityhiddenashhshovertextdecorationnoneashhs'
p87
I1
tp88
a(S'pavisitedshhs'
p89
I1
tp90
a(S'pmargin0'
p91
I1
tp92
a(S'0'
p93
I16
tp94
a(S'2emshhqtextdecorationunderlineshhidisplayinlinefontsizemediumcolorffa500shhowidth100positionabsolutetop0left0zindex1opacity6filteralphaopacity60padding1pxbackground000shho'
p95
I1
tp96
a(S'divborder1px'
p97
I1
tp98
a(S'solid'
p99
I5
tp100
a(S'fffhptbarhpbkdisplaynonethpnotfdivpositionfixedhiddendisplaynone'
p101
I1
tp102
a(S'importanthpswhdr'
p103
I2
tp104
a(S'swmktswpositionrelativedisplaynonetop0hpswhdr'
p105
I1
tp106
a(S'swmktsw'
p107
I2
tp108
a(S'ahpswhdr'
p109
I1
tp110
a(S'swmktsw'
p111
I2
tp112
a(S'spancolor999margin0'
p113
I1
tp114
a(S'10px'
p115
I5
tp116
a(g93
I16
tp117
a(S'9pxheight35pxlineheight35pxhpidhdr'
p118
I1
tp119
a(S'dhpcoloracacacpositionrelativefloatrightbottom0displayblockvisibilityhiddenpaddingleft5pxpaddingright30pxheight16pxlineheight100top13pxhpcontainer'
p120
I1
tp121
a(S'swas'
p122
I2
tp123
a(S'saashpcontainer'
p124
I1
tp125
a(S'swas'
p126
I2
tp127
a(S'lipptilebordercolore5e5e5hpcBkPhpcLogoWhitehpcNexthpcCopyInfohpcPlayhpcPausehpcPrevioushpcFullhpcSmallswqbtnhpcExpandhpcClosehpcDownprefimguparrowimgrwdssmlimgdownarrowhpcCaroNavRighthpcCaroNavLeftswqbtnwpbClosebackgroundtransparent'
p128
I1
tp129
a(S'urlsahpc14png'
p130
I2
tp131
a(S'norepeatoverflowhiddenhpcNexthpcCopyInfohpcPlayhpcPausehpcPrevioushpcFullhpcSmallhpcDownwidth32pxheight32pxhplogosvghpcLogoWhitebackgroundposition0'
p132
I1
tp133
a(S'0margin7px'
p134
I1
tp135
a(S'21px'
p136
I2
tp137
a(g93
I16
tp138
a(S'0width132pxheight52pxhpcNextbackgroundposition160px'
p139
I1
tp140
a(S'53pxhpcCopyInfobackgroundposition64px'
p141
I1
tp142
a(S'85pxhpcPlaybackgroundposition0'
p143
I1
tp144
a(S'85pxhpcSmallbackgroundposition64px'
p145
I1
tp146
a(S'53pxhpcDownbackgroundposition0'
p147
I1
tp148
a(S'53pxhpcFullbackgroundposition32px'
p149
I1
tp150
a(S'53pxhpcPausebackgroundposition32px'
p151
I1
tp152
a(S'85pxhpcPreviousbackgroundposition192px'
p153
I1
tp154
a(S'53pxswqbtnbackgroundposition224px'
p155
I1
tp156
a(S'53pxhpcCaroNavLefthpcCaroNavRightpositionabsolutewidth17pxheight26pxhpcCaroNavRightbackgroundposition222px'
p157
I1
tp158
a(S'27pxhpcCaroNavLeftbackgroundposition205px'
p159
I1
tp160
a(S'27pxhpcExpandhpcClosewidth32pxheight32pxhpcExpandbackgroundposition128px'
p161
I1
tp162
a(S'53pxhpcClosebackgroundposition96px'
p163
I1
tp164
a(S'53pxprefhoverbackgroundposition187px'
p165
I1
tp166
a(S'18pxprefbackgroundposition169px'
p167
I1
tp168
a(S'18pxwidth18pxheight18pximguparrowbackgroundposition174px'
p169
I1
tp170
a(S'36pxwidth20pxheight12px'
p171
I1
tp172
a(S'importantimgrwdssmlbackgroundposition167px'
p173
I1
tp174
a(S'0width18pxheight18px'
p175
I1
tp176
a(S'importantimgdownarrowbackgroundposition165px'
p177
I1
tp178
a(S'36pxwidth9pxheight6pxhpcBkPoverflowhiddenwidth74pxheight32pxcursorpointerbackgroundposition96px'
p179
I1
tp180
a(S'85pxhpcBkPhoverbackgroundposition171px'
p181
I1
tp182
a(S'85pxwpbClosewidth16pxheight16pxbackgroundposition132px'
p183
I1
tp184
a(S'36pxwpbClosehoverbackgroundposition148px'
p185
I1
tp186
a(S'36pxbpadding0media'
p187
I1
tp188
a(S'only'
p189
I1
tp190
a(S'screen'
p191
I1
tp192
a(S'minheight806px'
p193
I1
tp194
a(S'orientationlandscapescreen'
p195
I1
tp196
a(S'minwidth1433px'
p197
I1
tp198
a(S'orientationlandscapehpcontainerbgDivhpvidwrpvidmaxheight1080pxmaxwidth1920pxvidminwidth100minheight100widthautoheightautohptbarmaxwidth1920px'
p199
I1
tp200
a(S'importantscmdCrswidth100'
p201
I1
tp202
a(S'importantdivfocusovrpositionabsolutetop0left0width100background000zindex300opacity0msfilterprogidDXImageTransformMicrosoftAlphaOpacity0filteralphaopacity0focushizindex301'
p203
I1
tp204
a(S'importanthpswlogofloatlefttextindent20empaddingright8pxheight50pxhplogosvgfloatleftmargin7px'
p205
I1
tp206
a(S'21px'
p207
I2
tp208
a(g93
I16
tp209
a(S'0hplogosvg'
p210
I1
tp211
a(S'st0fillfffswsformpositionabsolutetop20left8width1028pxwidth690pxmargin0zindex9body'
p212
I1
tp213
a(S'bsearchboxForm'
p214
I1
tp215
a(S'bsearchboxSubmitheight37pxwidth37pxborder5px'
p216
I1
tp217
a(S'solid'
p218
I5
tp219
a(S'ffb900backgroundffb900'
p220
I1
tp221
a(S'urlsahpc14png'
p222
I2
tp223
a(S'norepeatbackgroundposition224px'
p224
I1
tp225
a(S'53pxverticalaligntopmargin2px'
p226
I1
tp227
a(g93
I16
tp228
a(S'3pxhtml'
p229
I1
tp230
a(S'bsearchboxSubmitcolor010101filterprogidDXImageTransformMicrosoftChromacolor000000margin3px'
p231
I1
tp232
a(S'5px'
p233
I2
tp234
a(S'3pxbordernonebody'
p235
I1
tp236
a(S'bsearchboxborderright0marginleft6pxpaddingright4pxtop3pxleft5pxheight20pxbody'
p237
I1
tp238
a(S'bsearchboxFormborder1px'
p239
I1
tp240
a(S'e5e5e5'
p241
I1
tp242
a(S'solidborder0padding5px'
p243
I1
tp244
a(S'3px'
p245
I1
tp246
a(S'0body'
p247
I1
tp248
a(S'betabody'
p249
I1
tp250
a(S'beta'
p251
I1
tp252
a(S'acolorbbbbetapositionabsolutetop45pxleft54pxwidth55pxheight18pxoverflowhiddenbeta'
p253
I1
tp254
a(S'afontsize12pxswclxpositionabsoluteright40pxpadding12pxcursorpointerswtpcbkbackgroundposition176px'
p255
I1
tp256
a(S'32pxheight10pxwidth10pxbackgroundimageurlsasimgswmgl4cpngbackgroundrepeatnorepeatswmeIcswspdswsprswprefidpfbidpwlididptwbackgroundimageurlsasimgswmgl4dorangepngbackgroundrepeatnorepeatswprefidpfbidpwlididptwbackgroundposition485px'
p257
I1
tp258
a(S'0height16pxwidth16pxswprefhoverswprefactiveswpreffocusbackgroundposition503px'
p259
I1
tp260
a(S'0idpfbbackgroundposition298px'
p261
I1
tp262
a(S'22pxidpwlidbackgroundposition384px'
p263
I1
tp264
a(S'0idptwbackgroundposition645px'
p265
I1
tp266
a(S'0swmeIcswsprimgrwdssmlbackgroundposition521px'
p267
I1
tp268
a(S'0height16pxwidth16pxspcv'
p269
I1
tp270
a(S'swmeIcrigleamon'
p271
I1
tp272
a(S'swmeIcbackgroundposition557px'
p273
I1
tp274
a(S'0gleamon'
p275
I1
tp276
a(S'swmeIcbackgroundposition627px'
p277
I1
tp278
a(S'0gleamoff'
p279
I1
tp280
a(S'swmeIcbackgroundposition609px'
p281
I1
tp282
a(S'0swspdbackgroundposition341px'
p283
I1
tp284
a(S'0height20pxwidth20pxbsearchboxFormbackgroundcolorfffswprefbordercolor333idbuttonidbuttonvisitedcolor777idbuttonhoverbidOpen'
p285
I1
tp286
a(S'aidlabepopenfoaidrhopenfocolor777backgroundcoloreeebidOpen'
p287
I1
tp288
a(S'idlbackgroundcoloreeeinputfontinheritfontsize100bsearchboxFormfont18pxnormal'
p289
I1
tp290
a(S'Segoe'
p291
I1
tp292
a(S'UIArialHelveticaSansSerifidbuttonlineheight40pxh2'
p293
I1
tp294
a(S'aahovertextdecorationunderlineaidh'
p295
I1
tp296
a(S'aidh'
p297
I1
tp298
a(S'ahoverbtogglebtogglehovertextdecorationnoneidh'
p299
I1
tp300
a(S'idbuttonidavatarrwdsbepheadswprefdisplayinlineblockbsearchboxFormpositionrelativedisplayinlineblockdisplayinlineleft25pxzoom1bsearchboxwidth490pxmargintop2pxmarginright0marginbottom3pxmarginleft12pxborder0paddingtop0paddingright10pxpaddingbottom0paddingleft0maxheight30pxoutlinenonewebkitappearancenoneborderright1px'
p301
I1
tp302
a(S'solidbordercolorcccboxsizingcontentboxpositionrelativeheight40pxbsearchboxSubmittextindent99empositionstaticright0top0cursorpointerfontsize0lineheight0idhdisplaynonepositionabsolutetop0width300pxheight40pxtextalignrightzindex10btwoColOnlyverticalaligntopidlidbuttonpadding0'
p303
I1
tp304
a(S'10pxbepfobepfmbepflwidth372pxbepfmdisplayblockbepfltextaligncentermargin50px'
p305
I1
tp306
a(S'0iddbepfoidscfopositionabsolutezindex6textalignleftcolor000backgroundcolorfffborder1px'
p307
I1
tp308
a(S'solid'
p309
I5
tp310
a(S'cccbordertopwidth0bidOpen'
p311
I1
tp312
a(S'idddisplayblockpadding11px'
p313
I1
tp314
a(g93
I16
tp315
a(S'5pxidscfodisplayblockswtfbbidddisplaynoneswprefborderstylesolidborderwidth7px'
p316
I1
tp317
a(g93
I16
tp318
a(S'7px'
p319
I1
tp320
a(S'10pxverticalalignbottomidhbackgroundcolortransparent'
p321
I1
tp322
a(S'importantpositionrelative'
p323
I1
tp324
a(S'importantfloatrightheight35px'
p325
I1
tp326
a(S'importantwidthautobepbepoffdisplaynonebep'
p327
I1
tp328
a(S'bepcntverticalaligntopswprefmargin0'
p329
I1
tp330
a(S'15px'
p331
I1
tp332
a(S'6px'
p333
I2
tp334
a(S'0iddleftautoright26pxtop35px'
p335
I1
tp336
a(S'importantidavatarverticalalignmiddlemargin10px'
p337
I1
tp338
a(g93
I16
tp339
a(S'10px'
p340
I5
tp341
a(S'10pxidd'
p342
I1
tp343
a(S'h2fontsize18pxfontweightnormalmargin0idbuttonlineheight35px'
p344
I1
tp345
a(S'importantverticalaligntopidbuttonhoverabepopenfoainterestsiconlinkopenfoaidrhopenfobackgroundcolortransparent'
p346
I1
tp347
a(S'importantbidOpen'
p348
I1
tp349
a(S'idlopenfo'
p350
I1
tp351
a(S'idrccolorfff'
p352
I1
tp353
a(S'importantbackgroundcolor333'
p354
I1
tp355
a(S'importantswtb'
p356
I1
tp357
a(S'ahovercolorfff'
p358
I1
tp359
a(S'importanttextdecorationnoneswtb'
p360
I1
tp361
a(S'dividpfbswtb'
p362
I1
tp363
a(S'dividpwlidheight16px'
p364
I1
tp365
a(S'importantidd'
p366
I1
tp367
a(S'ahoveridscfo'
p368
I1
tp369
a(S'ahovercolor1020d0'
p370
I1
tp371
a(S'importantidh'
p372
I1
tp373
a(S'bhidedisplaynone'
p374
I1
tp375
a(S'importantbepfopositionrelativeright0top5pxbordernoneidscfopositionabsoluteright0top35pxbordernonebcmbackgroundimageurlsasimgswmgl4dorangepngbackgroundrepeatnorepeatbackgroundposition433px'
p376
I1
tp377
a(S'32pxheight12pxwidth12pxdisplayinlineblockrwdsbepheadmargin12px'
p378
I1
tp379
a(g93
I16
tp380
a(g93
I16
tp381
a(S'6px'
p382
I2
tp383
a(S'importantbiconwidth20pxheight20pxborder0scpcpositionabsolutepadding0top14pxfontsize92margin82em'
p384
I1
tp385
a(g93
I16
tp386
a(g93
I16
tp387
a(S'18pxvisibilityhiddenminwidth16emwidthautoscpc'
p388
I1
tp389
a(S'schl1marginright0coloracacacscpcschl1padding10px'
p390
I1
tp391
a(S'8pxswtb'
p392
I1
tp393
a(S'schl1'
p394
I6
tp395
a(S'li'
p396
I14
tp397
a(S'schl1'
p398
I6
tp399
a(S'limargin0hphorhdr'
p400
I1
tp401
a(S'swtb'
p402
I4
tp403
a(S'scpc'
p404
I5
tp405
a(S'schl1'
p406
I6
tp407
a(S'li'
p408
I14
tp409
a(S'amargin0'
p410
I1
tp411
a(S'9pxscpc'
p412
I1
tp413
a(S'scpcC'
p414
I1
tp415
a(S'awordwrapbreakwordwhitespacenormalwidth145emscpc'
p416
I1
tp417
a(S'schl1'
p418
I6
tp419
a(S'li'
p420
I14
tp421
a(S'awhitespacenormalscpc'
p422
I1
tp423
a(S'schl1'
p424
I6
tp425
a(S'ahovertextdecorationnonecolorfffhpswhdr'
p426
I2
tp427
a(S'scpc'
p428
I5
tp429
a(S'h3displayblockscpc'
p430
I1
tp431
a(S'lipadding15emscsctbackground000left0top0positionabsolutezindex1width100height100'
p432
I1
tp433
a(S'importanthpswhdr'
p434
I2
tp435
a(S'swtb'
p436
I4
tp437
a(S'scpchpswhdr'
p438
I1
tp439
a(S'swtb'
p440
I4
tp441
a(S'scpc'
p442
I5
tp443
a(S'divhpswhdr'
p444
I1
tp445
a(S'swtb'
p446
I4
tp447
a(S'scpc'
p448
I5
tp449
a(S'lidisplayblockscsctfilteralphaopacity70opacity7scpcCfloatleftwidth166emscpc'
p450
I1
tp451
a(S'h3scpc'
p452
I1
tp453
a(S'scphdrfontsize18pxcolorfffmargin0'
p454
I1
tp455
a(S'8emcolorffffontweightnormalpadding3em'
p456
I1
tp457
a(S'2emscpcApadding21em'
p458
I1
tp459
a(S'2em'
p460
I1
tp461
a(S'0paddingleft5pxclearbothscpcA'
p462
I1
tp463
a(S'Amargin0'
p464
I1
tp465
a(S'75emscpc'
p466
I1
tp467
a(S'adisplayinlineblockpadding0scpc'
p468
I1
tp469
a(S'ahovertextdecorationunderlinescpc'
p470
I1
tp471
a(S'schl1'
p472
I6
tp473
a(S'ascpc'
p474
I1
tp475
a(S'ascpcAcoloracacacfontfamilyArialHelveticaSansSeriffontsize12pxtexttransformnoneschdu'
p476
I1
tp477
a(S'divrmsofficelaunchspritermsofficelaunchdisplayblockofficelinkofficelinkacursorpointerofficelinkhover'
p478
I1
tp479
a(S'rmsofficelaunchbackgroundposition15px'
p480
I1
tp481
a(S'0swtb'
p482
I1
tp483
a(S'ulompadding15pxwidth320pxheight300pxzindex9displaynonefilterprogidDXImageTransformMicrosoftgradientstartColorstrB2000000endColorstrB2000000backgroundcolorrgba0007om'
p484
I1
tp485
a(S'itmdesclineheightnormaltexttransformnonewidth70pxschdu'
p486
I1
tp487
a(S'scpc'
p488
I5
tp489
a(S'om'
p490
I1
tp491
a(S'lifloatleftwidth80pxheight80pxtextaligncenterpadding10pxom'
p492
I1
tp493
a(S'li'
p494
I14
tp495
a(S'acoloracacactextdecorationnonefontfamilyArialHelveticasansserifcursorpointerom'
p496
I1
tp497
a(S'lihover'
p498
I1
tp499
a(S'acolorfffoms'
p500
I1
tp501
a(S'omlimgbackgroundcolortransparentbackgroundrepeatnorepeatbackgroundimageurlsahpofficemenusprite3pngomlimgheight48pxwidth48pxmarginleftautomarginrightautodisplayinlineblockoverflowhiddenhpswhdr'
p502
I1
tp503
a(S'offmenucontdisplaynonevisibilityvisibleofficemenuoutlookimgbackgroundposition245px'
p504
I1
tp505
a(S'0officemenuwordimgbackgroundposition0'
p506
I1
tp507
a(S'0officemenuexcelimgbackgroundposition49px'
p508
I1
tp509
a(S'0officemenupowerpointimgbackgroundposition98px'
p510
I1
tp511
a(S'0officemenupeopleimgbackgroundposition343px'
p512
I1
tp513
a(S'0officemenucalendarimgbackgroundposition294px'
p514
I1
tp515
a(S'0officemenuonedriveimgbackgroundposition147px'
p516
I1
tp517
a(S'0officemenuonenoteimgbackgroundposition196px'
p518
I1
tp519
a(S'0officemenuswayimgbackgroundposition391px'
p520
I1
tp521
a(S'0officemenudocscomimgbackgroundposition439px'
p522
I1
tp523
a(S'0hpctrlsheight60pxwebkituserselectnonemozuserselectnonemsuserselectnoneuserselectnoneshrdivpositionabsoluteright40pxtop19pxshrdiv'
p524
I1
tp525
a(S'adivpositionrelativemargin0'
p526
I1
tp527
a(S'5pxshrdiv'
p528
I1
tp529
a(S'apositionrelativefloatleftdisplayblocktextdecorationnonecursordefaultoutlinenoneshrdiv'
p530
I1
tp531
a(S'ahovershrdiv'
p532
I1
tp533
a(S'ahover'
p534
I1
tp535
a(S'spanvisibilityvisibleshigldivshigrdivshigfdivvisibilityhiddencursorpointershrdiv'
p536
I1
tp537
a(S'sclightdis'
p538
I1
tp539
a(S'divcursordefaultopacity5filteralphaopacity30hpbottomCellzindex8'
p540
I1
tp541
a(S'importantshrdivzindex6musCardright20pxpositionabsolutedisplaynonewidth260pxminheight560pxtop500pxmusCardContentdisplaynonewidth100heightautopositionabsolutebackgroundimagewebkitgradientlinearleft'
p542
I1
tp543
a(S'topleft'
p544
I1
tp545
a(S'bottomfromrgba0006torgba0006backgroundimagemozlineargradientrgba0006'
p546
I1
tp547
a(S'0rgba0006'
p548
I4
tp549
a(S'100backgroundimagemslineargradientrgba0006'
p550
I1
tp551
a(S'0rgba0006'
p552
I4
tp553
a(S'100backgroundimageolineargradientrgba0006'
p554
I1
tp555
a(S'0rgba0006'
p556
I4
tp557
a(S'100backgroundimagelineargradientrgba0006'
p558
I1
tp559
a(S'0rgba0006'
p560
I4
tp561
a(S'100filterprogidDXImageTransformMicrosoftgradientstartColorstr99000000endColorstr99000000paddingbottom60pxpaddingtop10pxbottom0musCardContentmusCardContent'
p562
I1
tp563
a(S'acolordddfontfamilyArialHelveticaSansSeriffontsize13pxmusCardCopyrightmusCardImageTitlemusCardActionLinks'
p564
I1
tp565
a(S'li'
p566
I14
tp567
a(S'divmusCardContent'
p568
I1
tp569
a(S'divwhitespacenormaloverflowhiddentextoverflowellipsismstextoverflowellipsiswordwrapbreakwordmusCardDescmusCardImageTitlemusCardCopyrightmargin0'
p570
I1
tp571
a(S'10pxmusCardCopyrightpadding5px'
p572
I1
tp573
a(S'10px'
p574
I5
tp575
a(g93
I16
tp576
a(S'0musCardImageTitlepadding5px'
p577
I1
tp578
a(S'0musCardActionLinksliststylenonepadding0'
p579
I1
tp580
a(g93
I16
tp581
a(S'10px'
p582
I5
tp583
a(S'0borderbottom1px'
p584
I1
tp585
a(S'solid'
p586
I5
tp587
a(S'fffmargin0'
p588
I1
tp589
a(S'20pxmusCardActionLinks'
p590
I1
tp591
a(S'lipadding10px'
p592
I1
tp593
a(S'0actionlinkdescpaddingtop5pxmusCardCopyrightactionlinkdesccoloraaamusCardImageTitlecolordddfontsize22pxfontweight100fontfamilySegoe'
p594
I1
tp595
a(S'UI'
p596
I1
tp597
a(S'LightSegoe'
p598
I1
tp599
a(S'UIArialHelveticaSansSerifmusCardImageTitlereducedfontsize18pxDownloadHPImagedisabledcolor757575DownloadHPImagedisabledmusCardImageLinkemptycursordefaulttextdecorationnonehotdisable'
p600
I1
tp601
a(S'shhsthotdisable'
p602
I2
tp603
a(S'shhshotdisable'
p604
I1
tp605
a(S'shhsthotdisable'
p606
I2
tp607
a(S'shhsdisplaynone'
p608
I1
tp609
a(S'importanthpshareoptionsliststylenonemargin0'
p610
I1
tp611
a(S'10pxpadding0hpshareoptions'
p612
I1
tp613
a(S'lihpshareoptions'
p614
I1
tp615
a(S'li'
p616
I14
tp617
a(S'adisplayinlineblockhpshareoptions'
p618
I1
tp619
a(S'li'
p620
I14
tp621
a(S'atextaligncenterpadding10px'
p622
I1
tp623
a(S'5px'
p624
I2
tp625
a(S'10px'
p626
I5
tp627
a(S'10pxsbfootdisplayinlinezoom1swfootLmargin0padding0positionabsoluteright20pxwhitespacenowrapswfootL'
p628
I1
tp629
a(S'acolor666sbfoot'
p630
I1
tp631
a(S'uldisplayblocksbfoot'
p632
I1
tp633
a(S'lidisplayinlinesbfoot'
p634
I1
tp635
a(S'asbfoot'
p636
I2
tp637
a(S'spanmargin0'
p638
I2
tp639
a(S'10pxa'
p640
I1
tp641
a(S'sbfeedbackcolor1020d0swctfmmargin15px'
p642
I1
tp643
a(g93
I16
tp644
a(g93
I16
tp645
a(S'10pxfloatleftfbpgbtzindex1000000'
p646
I1
tp647
a(S'important2forsfslice2flengthe0e0foro1f0f0forvha0rsshiftafurf0v11npushnpushwlocationsearchsubstring1nfunction'
p648
I1
tp649
a(S'hpdefinednreturn'
p650
I1
tp651
a(S'typeof'
p652
I4
tp653
a(S'nundefinedfunction'
p654
I1
tp655
a(S'hplogwLogwLogLogLogLogapplythisargumentsfunction'
p656
I1
tp657
a(S'hpllogntHclientLoghplogLatencyHPn1Timetfunction'
p658
I1
tp659
a(S'hphasclassntreturn'
p660
I1
tp661
a(S'nnclassNamenclassNameindexOft1function'
p662
I1
tp663
a(S'hpaddclassntifhphasclassntvar'
p664
I1
tp665
a(S'ihpdefinedsjbclassListinclassListaddtnclassName'
p666
I1
tp667
a(S'tfunction'
p668
I1
tp669
a(S'hpremoveclassntvar'
p670
I1
tp671
a(S'fiurifhphasclassntiffhpdefinedsjbclassListfnclassListremovetelseforinclassNamesplit'
p672
I1
tp673
a(S'u1r0r0ispliceu1nclassNameijoin'
p674
I1
tp675
a(S'function'
p676
I1
tp677
a(S'hptrimstrnreturn'
p678
I1
tp679
a(S'typeof'
p680
I4
tp681
a(S'Stringprototypetrimfunctionnreplacessgntrimfunction'
p682
I1
tp683
a(S'hpgetelemsbyclassntivar'
p684
I1
tp685
a(S'reoufifngetElementsByClassNamereturn'
p686
I1
tp687
a(S'ngetElementsByClassNameiifrnreturn'
p688
I1
tp689
a(S'rforengetElementsByTagNametoelengthu0u0rpushfreturn'
p690
I1
tp691
a(S'rvar'
p692
I1
tp693
a(S'sbi9psbietypeof'
p694
I1
tp695
a(S'sbdestyleopacityundefinedsbi8lsbiesbi9pwschedwschedfunctionfunction'
p696
I1
tp697
a(S'rtnpushtfunction'
p698
I1
tp699
a(S'unreturn'
p700
I1
tp701
a(S'functionwschedschedulenfunction'
p702
I1
tp703
a(S'fntpushnfunction'
p704
I1
tp705
a(S'entintvar'
p706
I1
tp707
a(S'ntireturnregisterrwrapScheduleuschedulefreportCustomMetricensnregtcmifunction'
p708
I1
tp709
a(S'hasQuerynreturn'
p710
I1
tp711
a(S'nvaluereplacesgifunction'
p712
I1
tp713
a(S'qsnifwencodeURIComponentvar'
p714
I1
tp715
a(S'tnhrefreplaceampgiencodeURIComponentgesbformqvaluenhreftindexOfq1treplacenew'
p716
I1
tp717
a(S'RegExpqqitindexOfwhere11treplacenew'
p718
I1
tp719
a(S'RegExpwhere1where1ittindexOfBingBing\xec\x9b\xb9\xec\x9d\xb4\xeb\xaf\xb8\xec\xa7\x80\xeb\x8f\x99\xec\x98\x81\xec\x83\x81\xeb\x89\xb4\xec\x8a\xa4\xec\xa7\x80\xeb\x8f\x84\xed\x83\x90\xec\x83\x89\xea\xb2\x80\xec\x83\x89'
p720
I1
tp721
a(S'\xea\xb8\xb0\xeb\xa1\x9d124MSNOffice'
p722
I1
tp723
a(S'OnlineWord'
p724
I1
tp725
a(S'OnlineExcel'
p726
I1
tp727
a(S'OnlinePowerPoint'
p728
I1
tp729
a(S'OnlineOneNote'
p730
I1
tp731
a(S'OnlineSwayDocscomOneDrive\xec\xba\x98\xeb\xa6\xb0\xeb\x8d\x94\xed\x94\xbc\xed\x94\x8cOutlookcom\xeb\xa1\x9c\xea\xb7\xb8\xec\x9d\xb8Bingcom'
p732
I1
tp733
a(S'English169'
p734
I1
tp735
a(S'2015'
p736
I1
tp737
a(S'Microsoft'
p738
I1
tp739
a(S'\xea\xb0\x9c\xec\x9d\xb8\xec\xa0\x95\xeb\xb3\xb4\xec\xb7\xa8\xea\xb8\x89\xeb\xb0\xa9\xec\xb9\xa8'
p740
I1
tp741
a(S'\xeb\xb2\x95\xec\xa0\x81'
p742
I1
tp743
a(S'\xea\xb3\xa0\xec\xa7\x80\xec\x82\xac\xed\x95\xad'
p744
I1
tp745
a(S'\xea\xb4\x91\xea\xb3\xa0'
p746
I2
tp747
a(S'\xea\xb4\x91\xea\xb3\xa0'
p748
I2
tp749
a(S'\xec\xa0\x95\xeb\xb3\xb4'
p750
I1
tp751
a(S'\xeb\x8f\x84\xec\x9b\x80\xeb\xa7\x90'
p752
I1
tp753
a(S'\xec\x9d\x98\xea\xb2\xac0tsplicen1npytjoingtfunctionpypy'
p754
I1
tp755
a(S'gpygktfunctionntftngtytcfunctionptttst1nifunctionfunction'
p756
I1
tp757
a(S'husni0isnetverwetntstlovbstwontlwlntootntwisfureca5n0function'
p758
I1
tp759
a(S'avar'
p760
I2
tp761
a(S'tertvptdfallbackScriptuvvwotn1ffptdfallbackScriptutvwotca5var'
p762
I1
tp763
a(S't1y2i0n1rfreturnstartfunctionnhntrevertfunctionnhnyupdateDurfunctionnsnvbntistartfunctionnktnlrevertfunctionnktnoupdateDurfunctionnbtsnvbnwtreturn'
p764
I1
tp765
a(S'wttinicfunctionreturn'
p766
I1
tp767
a(S'wrequestAnimationFramewwebkitRequestAnimationFramewmozRequestAnimationFramewoRequestAnimationFramewmsRequestAnimationFramefunctionnfn167pfunctionntifefunction'
p768
I1
tp769
a(S'atnnstylenstylevisibilitythiddenvisiblevar'
p770
I1
tp771
a(S'posrstyleopacityfunctionntunt100opacityvsff0ysee1wsiisttclnpvydurationteasehInreturnupfunctionnv0a1cupdateDurtcstartfunctiony0a0nndownfunctionny0a1cupdateDurwcrevertfunctionv0a0nnupdateDurcupdateDurreturnanimElfadeEpeasehsjbesjuesjbsbdesjsosbstsbgtsbiefunctionntifunction'
p772
I1
tp773
a(S'fuendoho0ib0function'
p774
I1
tp775
a(S'snifnnlengthreturn'
p776
I1
tp777
a(S'rnrnstart0end0actual0done0ornfunction'
p778
I1
tp779
a(S'yvar'
p780
I1
tp781
a(S'nforvar'
p782
I1
tp783
a(S'rrhasOwnPropertytnpushtuactualrtactualreturn'
p784
I1
tp785
a(S'nsortfunctionntreturn'
p786
I1
tp787
a(S'rtactualrnactualnfunction'
p788
I1
tp789
a(S'pvar'
p790
I1
tp791
a(S'fe0tyinuiftlength0do'
p792
I1
tp793
a(S'ifitshiftnrinstartvbreakfpushuwhiletlength0return'
p794
I1
tp795
a(S'fjoinfunction'
p796
I1
tp797
a(S'wfunction'
p798
I1
tp799
a(S'rnreturn'
p800
I1
tp801
a(S'nntoStringreplacegnvar'
p802
I1
tp803
a(S'itnfort'
p804
I1
tp805
a(S'eehasOwnPropertytnettypeof'
p806
I1
tp807
a(S'nnumbernrnipushrtnreturn'
p808
I1
tp809
a(S'ijoinfunction'
p810
I1
tp811
a(S'buenduendnew'
p812
I1
tp813
a(S'Datenew'
p814
I1
tp815
a(S'ImagesrcGlsUrlTypeEventPPTDATASustartGSTEuendGSTTuactualIunumInvalidNpMwGPPGPGDADAGDAfunction'
p816
I1
tp817
a(S'knvar'
p818
I1
tp819
a(S'trnttdonetdone1hffunction'
p820
I1
tp821
a(S'cnvar'
p822
I1
tp823
a(S'rntaskifrvar'
p824
I1
tp825
a(S'urtnnsfndelay0ifttlength0atfunction'
p826
I1
tp827
a(S'evar'
p828
I1
tp829
a(S'inew'
p830
I1
tp831
a(S'Datenrnnew'
p832
I1
tp833
a(S'Dateltinuef0iufufunction'
p834
I1
tp835
a(S'lntivar'
p836
I1
tp837
a(S'refrsnreite0cnshiftf1sjevtbindschedsbstfunctionvar'
p838
I1
tp839
a(S'ngesbformqtfunctiontvar'
p840
I1
tp841
a(S'itkeyCoderutaltKeytctrlKeyi64i47i95i185indsjsot0rlsbstsjwfanimfadeEtupscfadeCbhrsjsot100scfadeCbsjcooksetncNncrNnhash0var'
p842
I1
tp843
a(S'unew'
p844
I1
tp845
a(S'Imagey0c0lvionSearchfunctionnx0unullsbctlauonloadfunctioncsbgtvwhplloghpllogImagecerucuonerrorfunctionhplogErrorHPImageLoadFailed1typeof'
p846
I1
tp847
a(S'grbBypassundefinedgrbBypassuonerrorfunctionerucvsbgtHstartTmwhplloghpllogImageStartvHstartTmusrcnurlvar'
p848
I1
tp849
a(S'ngimgtgenidusjevtiubindfuunbindeufireronBgLoadoonSbBusysonSbIdlehtypeof'
p850
I1
tp851
a(S'ndelundefinedndel500cwschedwghptseccschedulensHtasklionP1l1hfunction'
p852
I1
tp853
a(S'hpResizentirfunction'
p854
I1
tp855
a(S'hvar'
p856
I1
tp857
a(S'hcifnswgimgwgimghdon1wgimghdsup1sclientWidthesclientHeightoe1920o1080var'
p858
I1
tp859
a(S'tsgetBoundingClientRectiMathminMathroundtrighttlefterMathminMathroundtbottomttopoierohMathceiloieuwidthifuheighthfutoprh2fuleft0cMathceilerouheightrfuwidthcfutop0uleftic2fvar'
p860
I1
tp861
a(S'cresizefpxei1366or768unnstylestgehpcontainersuhsjbewchsjbewunloadfunctionsjuewchfunction'
p862
I1
tp863
a(S'checkResponsiveImagevar'
p864
I1
tp865
a(S'ngebgDivtparseIntngetAttributedataminhdhor1443iparseIntngetAttributedataminhdver806wgimgwscreenheightiwscreenwidthtwgimghdsup1wgimghdurlwgimghdhashwgimgurlwgimghdurlwgimghashwgimghdhashscfadeCbfunctionfunctionnfunction'
p866
I1
tp867
a(S'twgimggimgcNtypeof'
p868
I1
tp869
a(S'grbBypassundefinedgrbBypasssjevtfireonBgSetsjevtfireonBgLoadwghptsennschedulensHtasktsjevtbindonP1t1wschedfunction'
p870
I1
tp871
a(S'var'
p872
I2
tp873
a(S'events'
p874
I2
tp875
a(S'0sjevtbindonBgSet'
p876
I1
tp877
a(S'WaitEvent'
p878
I2
tp879
a(S'1'
p880
I2
tp881
a(S'0sjevtbindOnBnpLoaded'
p882
I1
tp883
a(S'WaitEvent'
p884
I2
tp885
a(S'1'
p886
I2
tp887
a(S'0function'
p888
I2
tp889
a(S'WaitEventif'
p890
I1
tp891
a(S'events'
p892
I2
tp893
a(S'2'
p894
I1
tp895
a(S'SendRequestfunction'
p896
I1
tp897
a(S'SendRequestif'
p898
I1
tp899
a(S'typeof'
p900
I4
tp901
a(S'Bnp'
p902
I1
tp903
a(S'undefined'
p904
I1
tp905
a(S'returnif'
p906
I1
tp907
a(S'BnpGlobalBnpGlobalRawRequestURL'
p908
I1
tp909
a(S'BnpGlobalReferer'
p910
I1
tp911
a(S'var'
p912
I2
tp913
a(S'request'
p914
I1
tp915
a(S'new'
p916
I2
tp917
a(S'BnpPartnerRequestHomePagerequestIID'
p918
I1
tp919
a(S'SERP2000requestSubmitfunctionfunction'
p920
I1
tp921
a(S'nvar'
p922
I1
tp923
a(S'nSRCHHPGUSRrsjcookgetnCWtirwindowsjbrsjbclientWidthsjcooksetnCWsbdeclientWidthsjbclientWidth1tsjcookgetnCHttsbdeclientHeightsjcooksetnCHsbdeclientHeight1isjcookgetnDPRtypeof'
p924
I1
tp925
a(S'wdevicePixelRatioundefinediiwdevicePixelRatiosjcooksetnDPRwdevicePixelRatio1sjbewloadnsjbewresizengimgurlazhprichbgrbBlackGrouseROW120841992121920x1080jpgidbgDivd200cNSScrNbImhash213del50gimghdon'
p926
I1
tp927
a(S'1gimghdsup'
p928
I1
tp929
a(S'0checkResponsiveImage'
p930
I1
tp931
a(S'checkResponsiveImagescbgLfunction'
p932
I1
tp933
a(S'fadeCompletevar'
p934
I1
tp935
a(S'irntGKPTnew'
p936
I1
tp937
a(S'DateiwgHPRMSAOLHhotDisgeschs1igNPLEsjjbhomepageHotspotsLargecrgeswfiltrngesbsltgesbformntnstylewidthtoffsetWidthpxnstyledisplayblockHcrsELloadCarouselgNPLEsjevtfireonRBCompletescfadeCbfadeCompletefunctionvar'
p938
I1
tp939
a(S'i1366rpxugeswfootLtgehpcontainernutnuoffsetWidth16ninin1085tstyleminWidthnrsjbclientWidthsjbclientHeightwnavigatoruserAgentmatchiPadtstyleminHeightparseIntndbodyoffsetHeightdbodyoffsetWidthrsaconfigu2fAS2fSuggestions3fpt3dpagehome26mkt3dkokr26qry3dmktkoKRfsbformisbformqcswassid0FF9A9F14D4366B2091FA1904C6E677Casf1t1ol1eHS1d100saloaderfunctionwrmsjsrmsanswersAutoSuggestAutoSugBasicBluermsAutoSugBasicBluejc2ff430ae693257d0jsburmsanswersAutoSuggestModules24Service2cApi2cDataProviders24GenericDataProvider2cAutoSuggestCanvasr2cAutoSuggestLayoutBluer2cAutoSuggestSearchFormr2cAutoSuggestInitrd1var'
p940
I1
tp941
a(S'saeL1functionfunction'
p942
I1
tp943
a(S'etirftsjuetiesaeLsaeLneAIrffkeyCode27ruu0saloaderfunction'
p944
I1
tp945
a(S'rntisjbentfunctionrentisjevrvar'
p946
I1
tp947
a(S'fgesaqsntiufvaluebsnsaconfigtgenitsetAttributeautocompleteoffigenciisjcediviidncfparentNodeappendChildiu1wsaloaderrtclick0rtkeydown0neAIrtkeyup0nolrwloadvar'
p948
I1
tp949
a(S'scopeRef'
p950
I1
tp951
a(S'new'
p952
I2
tp953
a(S'ArrayscopeUrlswebsearchqampFORMBWLH1scopeRefweb0scopeUrlsimagesimagessearchqampFORMBILH1scopeRefimages1scopeUrlsvideovideossearchqampFORMBVLH1scopeRefvideo2scopeUrlsnewsnewssearchqampFORMBNLH1scopeRefnews3scopeUrlslocalmapsdefaultaspxqampmktkoampFORMBYLH1scopeReflocal4scopeUrlsseeallexploreqampFORMBXLH1scopeRefseeall5scopeUrlshistoryprofilehistoryFORMZZLH1scopeRefhistory6var'
p954
I1
tp955
a(S'scpIID'
p956
I1
tp957
a(S'SERP1000var'
p958
I1
tp959
a(S'Identity'
p960
I2
tp961
a(S'Identity'
p962
I2
tp963
a(S'functioniiwlImgSm'
p964
I1
tp965
a(S'httpscid0usersstoragelivecomusers0x0myprofileexpressionprofileprofilephotoUserTileStaticpck1u0026ex720u0026fofoff1u0026sid0FF9A9F14D4366B2091FA1904C6E677CiwlImgLg'
p966
I1
tp967
a(S'httpscid0usersstoragelivecomusers0x0myprofileexpressionprofileprofilephotoUserTileMediumpck1u0026ex720u0026fofoff1u0026sid0FF9A9F14D4366B2091FA1904C6E677CipopupLoginUrls'
p968
I1
tp969
a(S'WindowsLiveIdhttpsloginlivecomloginsrfwawsignin10u0026rpsnv11u0026ct1447682761u0026rver6052860u0026wpMBIu0026wreplyhttps2F2fsslbingcom2Fsecure2FPassportaspx3Fpopup3D1u0026lc1042u0026id264960Identityvar'
p970
I1
tp971
a(S'schschfunctionvar'
p972
I1
tp973
a(S'tgeidhngeidsciclicksjevtbindonP1functionsetTimeoutfunctiontnsjjbBlueServicesHeaderFlyoutc0tmouseoverninfocussjbenifunctionnschclkn501functionfunction'
p974
I1
tp975
a(S'uifwgetComputedStylevar'
p976
I1
tp977
a(S'tsetIntervalfunctionvar'
p978
I1
tp979
a(S'fwgetComputedStylennullgetPropertyValuedisplayufindexOfnonerclientWidthhiddenvisiblevar'
p980
I1
tp981
a(S'ngeidhtgeswmktswr20nnulltnullninsertBeforetnfirstChildsjevtbindonP1functionu1100sjbewresizefunctioniwgvidOn'
p982
I1
tp983
a(S'wghasVid'
p984
I1
tp985
a(S'sjjbHPImgVidViewerc'
p986
I1
tp987
a(S'sjjbhomepageImgViewercvar'
p988
I1
tp989
a(S'gprefetch'
p990
I1
tp991
a(S'Im'
p992
I1
tp993
a(S'urlazhprichbgrbOverReykjavikROW105488086111920x1080jpg'
p994
I1
tp995
a(S'hash612sjevtbindonBgSetfunctionsjevtfireonInvokeHpm00var'
p996
I1
tp997
a(S'fbpkgiid'
p998
I2
tp999
a(S'fbpkgiid'
p1000
I2
tp1001
a(S'fbpkgiidpage'
p1002
I1
tp1003
a(S'SERP5088var'
p1004
I1
tp1005
a(S'Feedbackfunctionnvar'
p1006
I1
tp1007
a(S'tfunctiontfunction'
p1008
I1
tp1009
a(S'rtiuiftypeof'
p1010
I1
tp1011
a(S'nundefinedtypeof'
p1012
I1
tp1013
a(S'jQueryundefinedsetTimeoutfunctionrtiu50returnnPackageLoadLoadtiufunction'
p1014
I1
tp1015
a(S'intiusjevtfireonFeedbackStartingLoadJQueryntypeof'
p1016
I1
tp1017
a(S'nundefined1nnscrollTo00itypeof'
p1018
I1
tp1019
a(S'iundefined0irtiufunction'
p1020
I1
tp1021
a(S'untrufeovar'
p1022
I1
tp1023
a(S'sgetftypeof'
p1024
I1
tp1025
a(S'fundefined1ftypeof'
p1026
I1
tp1027
a(S'sjevtundefinedsjevtbindfeedbackformrequestedfunctioniunrt1typeof'
p1028
I1
tp1029
a(S'CortanaAppundefinedCortanaAppaddEventListenerCortanaAppaddEventListenerfeedbackformrequestedfunctionftypeof'
p1030
I1
tp1031
a(S'fundefinedfnullfisHandled0iunrtsnullsjbesclickfunctioneiffsclassListifsclassListcontainsclickedreturn1sclassListaddclickedsjpdesjspeiunrtotypeof'
p1032
I1
tp1033
a(S'oundefined1ooiunrttInitializeFeedbackutnBootstrapnBootstrapFeedbackFeedbackfunctionnvar'
p1034
I1
tp1035
a(S'tfunctionnuse'
p1036
I1
tp1037
a(S'strictfunction'
p1038
I1
tp1039
a(S'ireturn'
p1040
I1
tp1041
a(S'ddocumentElementouterHTMLfunction'
p1042
I1
tp1043
a(S'fniuvar'
p1044
I1
tp1045
a(S'fitypeof'
p1046
I1
tp1047
a(S'iundefined0iutypeof'
p1048
I1
tp1049
a(S'uundefineduforf'
p1050
I1
tp1051
a(S'ninhasOwnPropertyftypeof'
p1052
I1
tp1053
a(S'tfundefinedrfurfufunction'
p1054
I1
tp1055
a(S'rnivar'
p1056
I1
tp1057
a(S'hcGIGltypeof'
p1058
I1
tp1059
a(S'GVundefinedGPGVfrffeedbacknigcpltypeof'
p1060
I1
tp1061
a(S'fbsrcundefinedfsrcencodeURIComponentfbsrctypeof'
p1062
I1
tp1063
a(S'fbpkgiidundefinedtypeof'
p1064
I1
tp1065
a(S'fbpkgiidnundefinedfiidfbpkgiidnrlocationhrefmatchtesthooksir0fr0substring1rlocationhrefmatchhoseassistantir0fr0substring1rlocationhrefmatchhoseir0fr0substring1rlocationhrefmatchthemeir0fr0substring1rlocationhrefmatchclientir0fr0substring1rlocationhrefmatchclientversionir0fr0substring1typeof'
p1066
I1
tp1067
a(S'iundefinediffidencodeURIComponentiohsGETf0honreadystatechangefunctionreturn'
p1068
I1
tp1069
a(S'ehhsendajaxurlfsuccessutn0function'
p1070
I1
tp1071
a(S'engesbfeedbackremoveAttributeclickednreadyState4nstatus200unresponsefunction'
p1072
I1
tp1073
a(S'unbodyappendnfunction'
p1074
I1
tp1075
a(S'oforvar'
p1076
I1
tp1077
a(S'tdgetElementsByTagNamemetan0n0glfrclientWidth0rclientWidth4uifreturn'
p1078
I1
tp1079
a(S'ifunction'
p1080
I1
tp1081
a(S'itvar'
p1082
I1
tp1083
a(S'nlotbiyscrollLeftreturn'
p1084
I1
tp1085
a(S'ntiaevfunction'
p1086
I1
tp1087
a(S'rtnvar'
p1088
I1
tp1089
a(S'unnchildrennchildrenlength0nchildren0yuuchildren0tyychildrenocepwdgntlifttlength0a0returnforotlengthcddcreateDocumentFragmente0eswbdktrstylewidthwdpxgugetAttributedatacreditsntgescimagecreditslinknttitleglgeGGRTLcrsbtLeftcrsbtRightliilcrsbtdisabledfunction'
p1090
I1
tp1091
a(S'utvar'
p1092
I1
tp1093
a(S'isjgxnhppushparamsrwGwGIGnpushIGGIGnpushIIDSERPwnpushefirstfnpushecountcnpushescenariontnpushfiltersencodeURIComponenthrhpmitemsnjoiniopenGETrionreadystatechangefunctionifireadyState4istatus200var'
p1094
I1
tp1095
a(S'nsjcedivriresponseTextninnerHTMLrrtntLoadHPHpmAjaxLoad0e1isendfunction'
p1096
I1
tp1097
a(S'ftite0utvar'
p1098
I1
tp1099
a(S'dEVTCRSSCROLLDONEl154g229ntCarouselListe1a1v1uyrposhfcwnnEVTCRSSETUPDONEtt1sjevtsjevtbindwLogwLogLoghpremoveclasssbiefunctionfunction'
p1100
I1
tp1101
a(S'hiftvar'
p1102
I1
tp1103
a(S'unreplacewwwireturn'
p1104
I1
tp1105
a(S'fitrnPCfitrnitruitrnFormHPPDH1itrnPCBNHPitrnPCBNSRreturn'
p1106
I1
tp1107
a(S'0function'
p1108
I2
tp1109
a(S'creturn'
p1110
I1
tp1111
a(S'iwexternalsn0function'
p1112
I1
tp1113
a(S'lifuvar'
p1114
I1
tp1115
a(S'n2eoifunreturn0return1function'
p1116
I1
tp1117
a(S'avar'
p1118
I2
tp1119
a(S'ngehpsreturn'
p1120
I1
tp1121
a(S'nnsjcespanhpsnstylebehaviorurldefaulthomepagesjbappendChildnnfunction'
p1122
I1
tp1123
a(S'intitryreturn'
p1124
I1
tp1125
a(S'nticatchrreturn'
p1126
I1
tp1127
a(S'0var'
p1128
I1
tp1129
a(S'sIsSearchProviderInstalledrisHomepagenhttpddomainusjcookgetURDfsjcookgetSRCHSPCtaehoclu2eosjcooksetURDuvar'
p1130
I1
tp1131
a(S'BnpBnpBnpGlobalBnpGlobalBnpVersion1BnpPartnerBnpPartnerfunctionfunction'
p1132
I1
tp1133
a(S'unsjevtfireonBnpRendernfunction'
p1134
I1
tp1135
a(S'invar'
p1136
I1
tp1137
a(S'rriftypeof'
p1138
I1
tp1139
a(S'rstringifyfunctionreturn'
p1140
I1
tp1141
a(S'rstringifynvar'
p1142
I1
tp1143
a(S'otypeof'
p1144
I1
tp1145
a(S'nunnconstructorArrayfetifoobjectnnullreturn'
p1146
I1
tp1147
a(S'ostringnStringnfore'
p1148
I1
tp1149
a(S'ntnettconstructorFunctionufpushitfpusheitreturnuStringfufunction'
p1150
I1
tp1151
a(S'onforvar'
p1152
I1
tp1153
a(S'rungetElementsByTagNamescripttiulengthtu0isjcescripttsrcisrctsrcttextitextttextitypettypetparentNoderemoveChildtrpushireturn'
p1154
I1
tp1155
a(S'rfunction'
p1156
I1
tp1157
a(S'snforvar'
p1158
I1
tp1159
a(S't0tgfunctionntreturn'
p1160
I1
tp1161
a(S'fpushtiinnerHTMLdummyleoiiremoveChildifirstChildsjbappendChildihfsetsendRequestrfunctionBnpPartnerLoadedsjevtfireOnBnpLoadedBnpPartnerLoaded0var'
p1162
I1
tp1163
a(S'FocusModefunctionfunction'
p1164
I1
tp1165
a(S'wsjevtfireFMAnimCompletefunction'
p1166
I1
tp1167
a(S'vreturn'
p1168
I1
tp1169
a(S'documentactiveElementnifunction'
p1170
I1
tp1171
a(S'bnnkeyCode27ilfunction'
p1172
I1
tp1173
a(S'knreturn'
p1174
I1
tp1175
a(S'typeof'
p1176
I4
tp1177
a(S'nwhichundefined0typeof'
p1178
I1
tp1179
a(S'nwhichnumbernwhich0nctrlKeynaltKeynmetaKey101function'
p1180
I1
tp1181
a(S'dnknvefunction'
p1182
I1
tp1183
a(S'gnnkeyCode40nkeyCode8vefunction'
p1184
I1
tp1185
a(S'euappendChildthupwwghsCghsCdisableHdisableMCHdisableMChpaddclassorhpaddclasssrHfocusHideCrscdowni0function'
p1186
I1
tp1187
a(S'li1HenableMCHenableMCwghsCghsCenablehdownfunctionuremoveChildthpremoveclassorhpremoveclasssrHfocusHideCrscupfunction'
p1188
I1
tp1189
a(S'ntiffgesaghostboxffvaluelfunction'
p1190
I1
tp1191
a(S'tttvar'
p1192
I1
tp1193
a(S'isjettinlfunction'
p1194
I1
tp1195
a(S'ytstyleheightuclientHeight35pxfunction'
p1196
I1
tp1197
a(S'itunoatsphanimfadeEt250250055canimfadeEa25025001ysjbewresizeysjbedkeydowngsjbedkeypressdsjbedkeyupbsjbenclickesjbenpasteesjbenblurntsjbedclickttvar'
p1198
I1
tp1199
a(S'rfocushiogesboxngesbformqsgehpswhdrpgesbfoottsjcedivfocusovrugehpcontaineragehpbottomCellfhci1sjevtbindonBgSetitFocusModeFocusModefunctionnfunction'
p1200
I1
tp1201
a(S'rtifivar'
p1202
I1
tp1203
a(S'nigetAttributedataofficemenurootofficetgentistylelefttoffsetLeftuistyledisplayhifirstChildstyledisplayrtpopiettsjbetea1fsjbedkfunctionnnpointerTypettnpointerType2tpopstyledisplayrotn1function'
p1204
I1
tp1205
a(S'ahphasclassiliclassName'
p1206
I1
tp1207
a(S'lsjuetea1function'
p1208
I1
tp1209
a(S'vnvar'
p1210
I1
tp1211
a(S'hpn1utvar'
p1212
I1
tp1213
a(S'inpoposjgoncflgeitedbodyclientWidthloffsetWidthtnfirstChildnfirstChildoffsetLeftnoffsetLeft0t0e20istyleleftftusjevtfireonSPHoverscPopOfficesbi6ynndelayfadeInIntsbstsjwfyn0sfunction'
p1214
I1
tp1215
a(S'ontvar'
p1216
I1
tp1217
a(S'isjmotsjweinpn0ndelayfadeOutIntsbstsjwfftnsfunction'
p1218
I1
tp1219
a(S'utforvar'
p1220
I1
tp1221
a(S'tn0n1pt1n11nyfunctionnbtnnlength1pt0n11ndtfunctionbtfunction'
p1222
I1
tp1223
a(S'hihpdefinedrsjbedrli1hpdefinedcsjbedcwt1ytsjbedvtwt1esjbeewci1fsjbefiifunctionntvntype0sjbeurifunctionntyntype0sjbefwfunctionnnnweventnctrlKeynshiftKeynmetaKeynaltKeysjpdn1function'
p1224
I1
tp1225
a(S'ptntiinHideShowHPMuseumCard1MetatTimesbgtfunction'
p1226
I1
tp1227
a(S'ciifboohshhpdefinedhppushparamsvar'
p1228
I1
tp1229
a(S'nhpwpohshthppushparamstlengthntjoinwlocationhrefnfunction'
p1230
I1
tp1231
a(S'linsbi8leventiteventclientXeventclientYnitnpageXnpageYnfunction'
p1232
I1
tp1233
a(S'wtnvar'
p1234
I1
tp1235
a(S'tnnchangedTouchesnchangedTouches0nirsbi8ltitclientXrtclientYitpageXrtpageYtitirnfunction'
p1236
I1
tp1237
a(S'itnievar'
p1238
I1
tp1239
a(S'oetypebgeshrdivkgeshigageshpsvgeshiglhwsaifhtorepointerTypeatepointerType4ifhutfhvalidrthniiforovthtocepointerTypeatepointerType4iforlstyledisplayptvoreturnsjpdesjspelstyledisplayptvotyoreturnwectrlKeyeshiftKeyemetaKeyealtKeywuuhrefnthpdefinedebuttonebutton0wlocationhrefuhrefifsutbsleftsjgokltsvalidrtsnilstyledisplayporyttvoreturnautlavalidrtaniorsbctggsbstfunctiontyouityoorsbctgocktfunction'
p1240
I1
tp1241
a(S'rtntireturn'
p1242
I1
tp1243
a(S'tnlefttntop01function'
p1244
I1
tp1245
a(S'utnvar'
p1246
I1
tp1247
a(S'triureturn'
p1248
I1
tp1249
a(S'tsjgonltrtnclientWidthisjgongtuinclientHeightlefttrightrtopibottomuvalidt0r0i0u0function'
p1250
I1
tp1251
a(S'aiifttftstyledisplayplstyledisplaypviaastyledisplayhvar'
p1252
I1
tp1253
a(S'nsjcooksjcookgetURMCnn1sjcooksetURMC1function'
p1254
I1
tp1255
a(S'btlstyledisplayhftstyledisplayhshpremoveclasssctfunction'
p1256
I1
tp1257
a(S'vivar'
p1258
I1
tp1259
a(S'ugebepfmrgebepfotniforruhpaddclassrbhidesjevtfireonPopTRsfireEventsfireEventonwtdcreateEventEventstinitEventw01sdispatchEventtshpaddclasssctn1n0localStoragesetItemEfi1tnstyledisplayhfunction'
p1260
I1
tp1261
a(S'yinvar'
p1262
I1
tp1263
a(S'tinnlength'
p1264
I1
tp1265
a.