(lp0
(S'GooglefunctionwindowgooglekEIwuJJVoT3HsTR0AThlbnwDAkEXPI4029815403110940326784033307403334440365274037333403801240392684040171404249040432554043492404460640458414046304404640040473184047768404793040480074048011404834740485954048854404890940489314049201404946840495414049604404981340498324049896405034440507354050891405091140509154051000405115440512824051763405176740518304052312405238440524404053075405311040532618300096830027283002898502221850231285023138502341850244385024518502468850253785025518502555850265110200083102012251020128810201418authuser0kscsc9c918f010googlekHLkofunctiongooglelcgoogleli0googlegetEIfunctionaforvar'
p1
I1
tp2
a(S'baagetAttributebagetAttributeeidaaparentNodereturn'
p3
I1
tp4
a(S'bgooglekEIgooglegetLEIfunctionaforvar'
p5
I1
tp6
a(S'bnullaagetAttributebagetAttributeleidaaparentNodereturn'
p7
I1
tp8
a(S'bgooglehttpsfunctionreturnhttpswindowlocationprotocolgooglemlfunctionreturn'
p9
I1
tp10
a(S'nullgooglewlfunctionabtrygooglemlErrora1bcatchdgoogletimefunctionreturnnew'
p11
I1
tp12
a(S'DategetTimegooglelogfunctionabdegagooglelogUrlabdegifabnew'
p13
I1
tp14
a(S'Imagevar'
p15
I1
tp16
a(S'cgooglelcfgooglelicfbbonerrorbonloadbonabortfunctiondelete'
p17
I1
tp18
a(S'cfwindowgooglewindowgooglevelwindowgooglevelluwindowgooglevelluabsrcagooglelif1googlelogUrlfunctionabdegvar'
p19
I1
tp20
a(S'cfgooglelsifd1bsearcheivar'
p21
I1
tp22
a(S'hgooglegetEIeceih1bsearchleiegooglegetLEIecleiehgooglekEIcleigooglekEIadggen204atypictacadbcfzxgoogletimehttpitestagooglehttpsgooglemlErrora1srcaglmm1areturn'
p23
I1
tp24
a(S'agoogleygooglexfunctionabgoogleyaidabreturn1googleloadfunctionabdgooglexidakfunctiongoogleloadabdvar'
p25
I1
tp26
a(S'k0var'
p27
I1
tp28
a(S'gjwllocationfunction'
p29
I1
tp30
a(S'gjucvar'
p31
I1
tp32
a(S'agjwlhrefindexOfif0gbarguserfontsize13pxpaddingtop1px'
p33
I1
tp34
a(S'importantgbarheight22pxguserpaddingbottom7px'
p35
I1
tp36
a(S'importanttextalignrightgbhgbdbordertop1px'
p37
I1
tp38
a(S'solid'
p39
I4
tp40
a(S'c9d7f1fontsize1pxgbhheight0positionabsolutetop24pxwidth100media'
p41
I1
tp42
a(S'allgb1height22pxmarginright5emverticalaligntopgbarfloatleftagb1agb4textdecorationunderline'
p43
I1
tp44
a(S'importantagb1agb4color00c'
p45
I1
tp46
a(S'importantgbi'
p47
I1
tp48
a(S'gb4colordd8e27'
p49
I1
tp50
a(S'importantgbf'
p51
I1
tp52
a(S'gb4color900'
p53
I1
tp54
a(S'important'
p55
I1
tp56
a(S'bodytdaphfontfamily\xb1\xbc\xb8\xb2\xb5\xb8\xbf\xf2arialsansserifkofontsize9ptbodymargin0overflowyscrollgogpadding3px'
p57
I1
tp58
a(S'8px'
p59
I2
tp60
a(S'0tdlineheight8emgacm'
p61
I1
tp62
a(S'tdlineheight17pxformmarginbottom20pxhcolor36cqcolor00cts'
p63
I1
tp64
a(S'tdpadding0tsbordercollapsecollapseemfontweightboldfontstylenormallstheight25pxwidth496pxgsfilstfont18px'
p65
I1
tp66
a(S'arialsansserifgsfsfont17px'
p67
I1
tp68
a(S'arialsansserifdsdisplayinlineboxdisplayinlineblockmargin3px'
p69
I1
tp70
a(S'0'
p71
I7
tp72
a(S'4pxmarginleft4pxinputfontfamilyinheritagb1agb2agb3agb4color11c'
p73
I1
tp74
a(S'importantbodybackgroundfffcolorblackacolor11ctextdecorationnoneahoveraactivetextdecorationunderlinefl'
p75
I1
tp76
a(S'acolor36cavisitedcolor551a8bagb1agb4textdecorationunderlineagb3hovertextdecorationnoneghead'
p77
I1
tp78
a(S'agb2hovercolorfff'
p79
I1
tp80
a(S'importantsblcpaddingtop5pxsblc'
p81
I1
tp82
a(S'adisplayblockmargin2px'
p83
I1
tp84
a(S'0marginleft13pxfontsize11pxlsbbbackgroundeeebordersolid'
p85
I1
tp86
a(S'1pxbordercolorccc'
p87
I1
tp88
a(S'999'
p89
I2
tp90
a(S'999'
p91
I2
tp92
a(S'cccheight30pxlsbbdisplayblockftlfll'
p93
I1
tp94
a(S'adisplayinlineblockmargin0'
p95
I1
tp96
a(S'12pxlsbbackgroundurlimagesnavlogo229png'
p97
I1
tp98
a(g71
I7
tp99
a(S'261px'
p100
I1
tp101
a(S'repeatxbordernonecolor000cursorpointerheight30pxmargin0outline0font15px'
p102
I1
tp103
a(S'arialsansserifverticalaligntoplsbactivebackgroundccclstfocusoutlinenonetiahwidth458pxfunctionvar'
p104
I1
tp105
a(S'srcimagesnavlogo229pngvar'
p106
I1
tp107
a(S'iesgfalsedocumentbodyonload'
p108
I1
tp109
a(S'functionwindown'
p110
I1
tp111
a(S'windownif'
p112
I1
tp113
a(S'documentimagesnew'
p114
I1
tp115
a(S'Imagesrcsrc'
p116
I1
tp117
a(S'iesgdocumentfdocumentfqfocusdocumentgbqfdocumentgbqfqfocus'
p118
I1
tp119
a(S'\xb0\xcb\xbb\xf6'
p120
I1
tp121
a(S'\xc0\xcc\xb9\xcc\xc1\xf6'
p122
I1
tp123
a(S'\xc1\xf6\xb5\xb5'
p124
I1
tp125
a(S'Play'
p126
I1
tp127
a(S'YouTube'
p128
I1
tp129
a(S'\xb4\xba\xbd\xba'
p130
I1
tp131
a(S'Gmail'
p132
I1
tp133
a(S'\xb5\xe5\xb6\xf3\xc0\xcc\xba\xea'
p134
I1
tp135
a(S'\xb4\xf5\xba\xb8\xb1\xe2'
p136
I1
tp137
a(S'raquo\xc0\xa5'
p138
I1
tp139
a(S'\xb1\xe2\xb7\xcf'
p140
I1
tp141
a(S'\xbc\xb3\xc1\xa4'
p142
I1
tp143
a(S'\xb7\xce\xb1\xd7\xc0\xce'
p144
I1
tp145
a(S'pmoabsbackgroundcolorfffborder1px'
p146
I1
tp147
a(S'solid'
p148
I4
tp149
a(S'E5E5E5color666fontsize13pxpaddingbottom20pxpositionabsoluteright2pxtop3pxzindex986pmolnkborderradius2pxmozborderradius2pxwebkitborderradius2pxkdbuttonsubmitborder1px'
p150
I1
tp151
a(S'solid'
p152
I4
tp153
a(S'3079edbackgroundcolor4d90febackgroundimagewebkitgradientlinearleft'
p154
I1
tp155
a(S'topleft'
p156
I2
tp157
a(S'bottomfrom4d90feto4787edbackgroundimagewebkitlineargradienttop4d90fe4787edbackgroundimagemozlineargradienttop4d90fe4787edbackgroundimagemslineargradienttop4d90fe4787edbackgroundimageolineargradienttop4d90fe4787edbackgroundimagelineargradienttop4d90fe4787edfilterprogidDXImageTransformMicrosoftgradientstartColorStr4d90feEndColorStr4787edkdbuttonsubmithoverborder1px'
p158
I1
tp159
a(S'solid'
p160
I4
tp161
a(S'2f5bb7backgroundcolor357ae8backgroundimagewebkitgradientlinearleft'
p162
I1
tp163
a(S'topleft'
p164
I2
tp165
a(S'bottomfrom4d90feto357ae8backgroundimagewebkitlineargradienttop4d90fe357ae8backgroundimagemozlineargradienttop4d90fe357ae8backgroundimagemslineargradienttop4d90fe357ae8backgroundimageolineargradienttop4d90fe357ae8backgroundimagelineargradienttop4d90fe357ae8filterprogidDXImageTransformMicrosoftgradientstartColorStr4d90feEndColorStr357ae8kdbuttonsubmitactivewebkitboxshadowinset'
p166
I1
tp167
a(g71
I7
tp168
a(S'1px'
p169
I3
tp170
a(S'2px'
p171
I3
tp172
a(S'rgba00003mozboxshadowinset'
p173
I1
tp174
a(g71
I7
tp175
a(S'1px'
p176
I3
tp177
a(S'2px'
p178
I3
tp179
a(S'rgba00003boxshadowinset'
p180
I1
tp181
a(g71
I7
tp182
a(S'1px'
p183
I3
tp184
a(S'2px'
p185
I3
tp186
a(S'rgba00003pmolnk'
p187
I1
tp188
a(S'acolorfffdisplayinlineblockfontweightboldpadding5px'
p189
I1
tp190
a(S'20pxtextdecorationnonewhitespacenowrapxbtncolor999cursorpointerfontsize23pxlineheight5pxpaddingtop5pxpadipadding0'
p191
I1
tp192
a(S'8px'
p193
I2
tp194
a(g71
I7
tp195
a(S'10pxpadtpadding5px'
p196
I1
tp197
a(S'20px'
p198
I1
tp199
a(g71
I7
tp200
a(S'0color444padstextalignleftmaxwidth200px'
p201
I1
tp202
a(S'times'
p203
I1
tp204
a(S'\xb4\xf5\xbf\xed'
p205
I1
tp206
a(S'\xc6\xed\xb8\xae\xc7\xd1'
p207
I1
tp208
a(S'\xc0\xa5'
p209
I1
tp210
a(S'\xc5\xbd\xbb\xf6'
p211
I1
tp212
a(S'\xc8\xaf\xb0\xe6'
p213
I1
tp214
a(S'Google'
p215
I1
tp216
a(S'Chrome'
p217
I1
tp218
a(S'\xb4\xd9\xbf\xee\xb7\xce\xb5\xe5'
p219
I1
tp220
a(S'functionvar'
p221
I2
tp222
a(S'avavYa50avWa10avFabodyavEb0avHbfunctionbcvar'
p223
I1
tp224
a(S'davrbavubdbcavIbdavEbavFbdavIbfunctionbbavHab0forvar'
p225
I1
tp226
a(S'e'
p227
I1
tp228
a(S'cchasOwnPropertyedpushcedpushbwritedjoinbcloseavJafunctionbccavWagooglegooglemlgooglemlErrorogcdr1causetimeoutbcontentWindowavGbbwindowsetTimeoutfunctionavJabc1avYaavGbfunctionbdocumentbodyremoveChildbavFbfunctionbavpbbloadfunctionavJab0avpbfunctionbcdbaddEventListenerbaddEventListenercd1battachEventbattachEventoncdvar'
p229
I1
tp230
a(S'mLb0U1V2na5asaspaSaimadUalasRqa0W1asraoa1ma2ka3asOMaaQagTclbukbtqapXapidOaeidmbatasTawindowlocationprotocolwwwgooglecomogpromosasPagasnbzasyafunctionbcdevar'
p231
I1
tp232
a(S'fnullswitchccase'
p233
I1
tp234
a(S'mUfwindowgbarupgpdbd0breakcase'
p235
I1
tp236
a(S'mnafwindowgbarupgccereturn'
p237
I1
tp238
a(S'nullf0parseIntf10asAbfunctionbcdreturn'
p239
I1
tp240
a(S'cmUnullwindowgbarupgpdbd01astafunctionbcdefhklvar'
p241
I1
tp242
a(S'ggasOqabgasOQacgasOMadgasOmbegasOOafgasOXa1kgasOTklgasOlblifhgasOkbhelse'
p243
I1
tp244
a(S'return'
p245
I1
tp246
a(S'googlemlErrorknu1causeToken'
p247
I1
tp248
a(S'foundnullreturn'
p249
I1
tp250
a(S'gasCafunctionbcdifbvar'
p251
I1
tp252
a(S'ecasPaasnbcdeauthuserdavHbbasTaeastbfunctionbcdefhkbastacbaspamaasramadfnulleasCabhkaswbfunctionbcdefhkbastacbaspaSaasraoadfenullasCabhkasDbfunctionbcdefhklgnswitchccase'
p253
I1
tp254
a(S'mnawindowgbarupdpcefbreakcase'
p255
I1
tp256
a(S'mUwindowgbarupspdbd10breakcase'
p257
I1
tp258
a(S'mVgg1llhh0kkasRWnn0astbehkflgnasBbfunctionbcdefreturn'
p259
I1
tp260
a(S'cmU0d1asvbfunctionbcdefhklgnswitchccase'
p261
I1
tp262
a(S'mnawindowgbarupiicefbreakcase'
p263
I1
tp264
a(S'mUcasyabcde1windowgbarupspdbdctoString0breakcase'
p265
I1
tp266
a(S'mVgg1llhh0kkasRqann0aswbehk1lgnasCbfunctionbcdefhbastacbaspaUaasrakadenullnullasCabfhvar'
p267
I1
tp268
a(S'pJbaMblKbcNadkahoaiWbnWxTbmaUbmcVbmiNbpaObpcQbpiSbpnRbpxPbpdXbgpaZbgpibgpnacgpxYbgpdaoaoNVahplogojbpmocntr2aoRab0W1La2aowdocumentgetElementByIdaoNjbaoRa16aoZa2aoa20googlepromosgooglepromosgooglepromostoastgooglepromostoastaofunctionbaowaowstyledisplaybnoneaowparentNodeaowparentNodestylepositionbrelativeaoKafunctionbtryifaowbbesbesmvar'
p269
I1
tp270
a(S'cwindowgbarrtldocumentbodyleftrightaowstylecbesmaoRaaoZapxaowstyletopaoapxcatchdgooglemld1causeaoPPTgooglepromostoastclfunctiontryaovamVasCbaoAaaoSaoRLaaoEaaoBaaoDawindowgbarupslaoSaoPpkaaowa1catchbgooglemlb1causeaoPCLgooglepromostoastcpcfunctiontryaowao1asDbaowaovaaoNGaaoAaaoqbaoSaoRWaoEaaoBaaoDawindowgbarupslaoSaoPpNaaowa1catchbgooglemlb1causeaoPCPCaoIafunctiontryifaowvar'
p271
I1
tp272
a(S'b276cdocumentgetElementByIdaoNVacbMathmaxbcoffsetWidthvar'
p273
I1
tp274
a(S'dparseIntaowstyleright100aowstylevisibility2aowoffsetWidthdbdocumentbodyclientWidthhiddencatchegooglemle1causeaoPHOSWaoobfunctionvar'
p275
I1
tp276
a(S'bgpdspdaehslifwindowgbarwindowgbarupreturn1forvar'
p277
I1
tp278
a(S'c0ddbccifd'
p279
I1
tp280
a(S'windowgbarupreturn1return0aoybfunctionreturn'
p281
I1
tp282
a(S'aowcurrentStyleabsoluteaowcurrentStylepositiongooglepromostoastinitfunctionbcdefhklgnqrtryifaoobgooglemlErrorapa1causeaoPINITelse'
p283
I1
tp284
a(S'ifaowifemVlggooglemlErrortku1causezwieback'
p285
I1
tp286
a(S'g'
p287
I1
tp288
a(S'gaia'
p289
I1
tp290
a(S'lao1else'
p291
I1
tp292
a(S'ifaoNTtoastcountcqqaoNGatoastdpcrraoPdaoSbaovaeaoAacaoqbfaoEallgaoBalaoDakasAbaoweaoNGacasBbaowehaoNTcaoybao1elseasvbaoweaoNTcfaoSaoRabaoEaaoBaaoDaifntrywindowgbarupaehwindowresizeaoIacatchtwindowlolaoIawindowgbarelraoKawindowgbarelrwindowgbarelcwindowgbarelcaoKaao0windowgbarupslaoSaoPpoaaowacatchtgooglemlt1causeaoPINITaowafunctionvar'
p293
I1
tp294
a(S'basyaaowaovaaoNTaoAareturnicb'
p295
I1
tp296
a(S'functionvar'
p297
I2
tp298
a(S'sourceWebappPromoID291003var'
p299
I1
tp300
a(S'sourceWebappGroupID5var'
p301
I1
tp302
a(S'payloadType5var'
p303
I1
tp304
a(S'cookieMaxAgeSec2592000var'
p305
I1
tp306
a(S'dismissalType5var'
p307
I1
tp308
a(S'impressionCap25var'
p309
I1
tp310
a(S'gaiaXsrfTokenvar'
p311
I1
tp312
a(S'zwbkXsrfTokenvar'
p313
I1
tp314
a(S'kansasDismissalEnabledfalsevar'
p315
I1
tp316
a(S'sessionIndex0var'
p317
I1
tp318
a(S'invisiblefalsewindowgbargbarupgbaruprgbaruprpayloadTypefunctionshowif'
p319
I1
tp320
a(S'showgooglepromostoastinitsourceWebappPromoIDsourceWebappGroupIDpayloadTypedismissalTypecookieMaxAgeSecimpressionCapsessionIndexgaiaXsrfTokenzwbkXsrfTokeninvisible0612'
p321
I1
tp322
a(S'\xc7\xd1\xb1\xb9'
p323
I1
tp324
a(S'nbsp\xb0\xed\xb1\xde\xb0\xcb\xbb\xf6\xbe\xf0\xbe\xee\xb5\xb5\xb1\xb8\xb1\xa4\xb0\xed'
p325
I1
tp326
a(S'\xc7\xc1\xb7\xce\xb1\xd7\xb7\xa5\xba\xf1\xc1\xee\xb4\xcf\xbd\xba'
p327
I1
tp328
a(S'\xbc\xd6\xb7\xe7\xbc\xc7GoogleGoogle'
p329
I1
tp330
a(S'\xc1\xa4\xba\xb8Googlecomcopy'
p331
I1
tp332
a(S'2015'
p333
I1
tp334
a(S'\xb0\xb3\xc0\xce\xc1\xa4\xba\xb8\xc3\xeb\xb1\xde\xb9\xe6\xc4\xa7'
p335
I1
tp336
a(S'\xbe\xe0\xb0\xfcfunctionwindowgooglecdoheight0width0functionvar'
p337
I1
tp338
a(S'awindowinnerWidthbwindowinnerHeightifabvar'
p339
I1
tp340
a(S'cwindowdocumentdCSS1CompatccompatModecdocumentElementcbodyadclientWidthbdclientHeightabagooglecdowidthbgooglecdoheightgooglelogclient204atypibiwabihbeigooglekEIfunctionfunction'
p341
I1
tp342
a(S'cbwindowsetTimeoutfunctionvar'
p343
I1
tp344
a(S'adocumentcreateElementscriptasrcbdocumentgetElementByIdxjsdappendChilda0googledljpfunctionbagooglexjsubcagoogledljcfunctionwindowgooglexjsrmifgoogleygoogleyfirstifgooglexjswindowwindowwindowDumpExceptionfunctionethrow'
p345
I1
tp346
a(S'eifgoogletimersgoogletimersloadtgoogletimersloadtxjslsnew'
p347
I1
tp348
a(S'DategetTimegoogledljpxjsjskx3dxjshpenUSgp1oeOY8XtQOmx3dsbhedrtx3djdx3d1tx3dzcmsrsx3dACT90oGwouWTJDmCa07lBRvExUF65bHGwxjsjskx3dxjshpenUSgp1oeOY8XtQOmx3dsbhedrtx3djdx3d1tx3dzcmsrsx3dACT90oGwouWTJDmCa07lBRvExUF65bHGwgooglexjs1googlepmcsbheagentruecgentrueclientheirloomhpdhtruedsfltruehostgooglecokrisbh28jam0jsonptruemsgscibl\xb0\xcb\xbb\xf6\xbe\xee'
p349
I1
tp350
a(S'\xc1\xf6\xbf\xec\xb1\xe2dym\xc0\xcc\xb0\xcd\xc0\xbb'
p351
I1
tp352
a(S'\xc3\xa3\xc0\xb8\xbc\xcc\xb3\xaa\xbf\xe4lckyI\xa1\xafm'
p353
I1
tp354
a(S'Feeling'
p355
I1
tp356
a(S'Luckylml\xc0\xda\xbc\xbc\xc8\xf7'
p357
I1
tp358
a(S'\xbe\xcb\xbe\xc6\xba\xb8\xb1\xe2oskt\xc0\xd4\xb7\xc2'
p359
I1
tp360
a(S'\xb5\xb5\xb1\xb8psrc\xb0\xcb\xbb\xf6\xbe\xee\xb0\xa1'
p361
I1
tp362
a(S'u003Ca'
p363
I1
tp364
a(S'hrefhistoryu003E\xc0\xa5'
p365
I1
tp366
a(S'\xb1\xe2\xb7\xcfu003Cau003E\xbf\xa1\xbc\xad'
p367
I1
tp368
a(S'\xbb\xe8\xc1\xa6\xb5\xc7\xbe\xfa\xbd\xc0\xb4\xcf\xb4\xd9psrl\xbb\xe8\xc1\xa6sbit\xc0\xcc\xb9\xcc\xc1\xf6\xb7\xce'
p369
I1
tp370
a(S'\xb0\xcb\xbb\xf6srchGoogle'
p371
I1
tp372
a(S'\xb0\xcb\xbb\xf6ovrspsxb1pqrefoqtruerefpdtruerefspretruerfsscd10sce5stoksLSJHFZVbHVgxmw71iCALyrJwUdgoogleyfirstpushfunctionifgooglemedgooglemedinitgoogleinitHistorygooglemedhistoryifgooglejgooglejengooglejxiwindowsetTimeoutgooglejxi0'
p373
I1
tp374
a.